
lab05.elf:     file format elf32-avr

Sections:
Idx Name          Size      VMA       LMA       File off  Algn
  0 .data         00000044  00800100  0000143e  000014d2  2**0
                  CONTENTS, ALLOC, LOAD, DATA
  1 .text         0000143e  00000000  00000000  00000094  2**1
                  CONTENTS, ALLOC, LOAD, READONLY, CODE
  2 .bss          00000009  00800144  00800144  00001516  2**0
                  ALLOC
  3 .comment      00000011  00000000  00000000  00001516  2**0
                  CONTENTS, READONLY
  4 .note.gnu.avr.deviceinfo 00000040  00000000  00000000  00001528  2**2
                  CONTENTS, READONLY
  5 .debug_info   000005f4  00000000  00000000  00001568  2**0
                  CONTENTS, READONLY, DEBUGGING
  6 .debug_abbrev 000005a2  00000000  00000000  00001b5c  2**0
                  CONTENTS, READONLY, DEBUGGING
  7 .debug_line   0000001a  00000000  00000000  000020fe  2**0
                  CONTENTS, READONLY, DEBUGGING
  8 .debug_str    00000208  00000000  00000000  00002118  2**0
                  CONTENTS, READONLY, DEBUGGING
Contents of section .data:
 800100 00000002 00000000 f8000000 0000ffff  ................
 800110 ffffffff ffff2573 0a204865 6a005465  ......%s. Hej.Te
 800120 6d706572 61747572 653a2000 25660a00  mperature: .%f..
 800130 48756d69 64697479 3a20002e 2e2e2e2e  Humidity: ......
 800140 2e2e2e00                             ....            
Contents of section .text:
 0000 0c94d900 0c94f600 0c94f600 0c94f600  ................
 0010 0c94f600 0c94f600 0c94f600 0c94f600  ................
 0020 0c94f600 0c94f600 0c94f600 0c94f600  ................
 0030 0c94f600 0c94f600 0c94f600 0c94f600  ................
 0040 0c94f600 0c94f600 0c94f600 0c94f600  ................
 0050 0c94f600 0c94f600 0c94f600 0c94f600  ................
 0060 0c94f600 0c94f600 4552524f 522c2074  ........ERROR, t
 0070 7279696e 6720746f 20777269 7465206f  rying to write o
 0080 75747369 64652061 7661696c 61626c65  utside available
 0090 20454550 524f4d20 73706163 653a2030   EEPROM space: 0
 00a0 78253032 782d3078 25303278 20283078  x%02x-0x%02x (0x
 00b0 30302d30 78383020 76616c69 6429210a  00-0x80 valid)!.
 00c0 00457261 73652063 6f6d706c 6574650a  .Erase complete.
 00d0 00203e20 45726173 696e6720 25303258  . > Erasing %02X
 00e0 2d253032 580a0045 72617369 6e672045  -%02X..Erasing E
 00f0 4550524f 4d0a004e 2f412025 3032580a  EPROM..N/A %02X.
 0100 004d5220 44415441 2b522c20 4e414b0a  .MR DATA+R, NAK.
 0110 004d5220 44415441 2b522c20 41434b0a  .MR DATA+R, ACK.
 0120 004d5220 534c412b 522c204e 414b0a00  .MR SLA+R, NAK..
 0130 4d522053 4c412b52 2c204143 4b0a004d  MR SLA+R, ACK..M
 0140 54204441 54412b57 2c204e41 4b0a004d  T DATA+W, NAK..M
 0150 54204441 54412b57 2c204143 4b0a004d  T DATA+W, ACK..M
 0160 5420534c 412b572c 204e414b 0a004d54  T SLA+W, NAK..MT
 0170 20534c41 2b572c20 41434b0a 004e4f41   SLA+W, ACK..NOA
 0180 52422f4e 414b0a00 52455354 4152540a  RB/NAK..RESTART.
 0190 00535441 52540a00 207c2025 73207c0a  .START.. | %s |.
 01a0 00253032 58200025 30345820 207c2020  .%02X .%04X  |  
 01b0 00001124 1fbecfef d8e0debf cdbf11e0  ...$............
 01c0 a0e0b1e0 eee3f4e1 02c00590 0d92a434  ...............4
 01d0 b107d9f7 21e0a4e4 b1e001c0 1d92ad34  ....!..........4
 01e0 b207e1f7 0e943705 0c941d0a 0c940000  ......7.........
 01f0 cf93c82f 8a3029f4 60e070e0 8de00e94  .../.0).`.p.....
 0200 f8008091 c00085ff fccfc093 c60080e0  ................
 0210 90e0cf91 08951092 c50089e1 8093c400  ................
 0220 1092c000 88e18093 c10086e0 8093c200  ................
 0230 80e091e0 90934a01 80934901 08958091  ......J...I.....
 0240 c00087ff fccf8091 c6000895 0895ece7  ................
 0250 f0e080e6 80838081 80838be8 80937a00  ..............z.
 0260 08958093 44010895 80914401 08950895  ....D.....D.....
 0270 89e48093 b8000895 803379f1 88f48831  .........3y....1
 0280 31f138f4 8830e9f0 8031b1f5 88e891e0  1.8..0...1......
 0290 2cc08032 f9f08832 79f58fe4 91e025c0  ,..2...2y.....%.
 02a0 8834f1f0 38f48833 79f08034 29f580e3  .4..8..3y..4)...
 02b0 91e01bc0 8035b9f0 8835f1f4 81e091e0  .....5...5......
 02c0 14c081e9 91e011c0 8de791e0 0ec08ee6  ................
 02d0 91e00bc0 8fe591e0 08c08fe3 91e005c0  ................
 02e0 81e291e0 02c081e1 91e09f93 8f930e94  ................
 02f0 2f070f90 0f900895 1f928f93 87ef90e0  /...............
 0300 9f938f93 0e942f07 0f900f90 0f900f90  ....../.........
 0310 089584ea 8093bc00 8091bc00 87fffccf  ................
 0320 089584e9 8093bc00 87ec90e0 0197f1f7  ................
 0330 00c00000 08958091 b900887f 0895862b  ...............+
 0340 8093bb00 84e88093 bc008091 bc0087ff  ................
 0350 fccf0895 8093bb00 84e88093 bc008091  ................
 0360 bc0087ff fccf0895 0e948901 60e080ea  ............`...
 0370 0e949f01 8091b900 887f8831 a9f70895  ...........1....
 0380 cf93c82f 0e948901 60e080ea 0e949f01  .../....`.......
 0390 8c2f0e94 aa010e94 890161e0 80ea0e94  ./........a.....
 03a0 9f0184e8 8093bc00 8091bc00 87fffccf  ................
 03b0 c091bb00 0e949101 8c2fcf91 0895cf93  ........./......
 03c0 df93d82f c62f0e94 890160e0 80ea0e94  ..././....`.....
 03d0 9f018d2f 0e94aa01 8c2f0e94 aa010e94  .../...../......
 03e0 9101df91 cf910c94 b401ef92 ff920f93  ................
 03f0 1f93cf93 df937c01 c62f8a01 0e948901  ......|../......
 0400 60e080ea 0e949f01 8c2f0e94 aa01e701  `......../......
 0410 0e0d1f1d c017d107 21f08991 0e94aa01  ........!.......
 0420 f9cf0e94 9101df91 cf911f91 0f91ff90  ................
 0430 ef900c94 b401ff92 0f931f93 cf93df93  ................
 0440 182f092f f62eea01 0e948901 60e080ea  ././........`...
 0450 0e949f01 8f2d0e94 aa010e94 890161e0  .....-........a.
 0460 80ea0e94 9f01212f e12ff02f 34ec2197  ......!/././4.!.
 0470 8e2f821b df013093 bc009091 bc0097ff  ./....0.........
 0480 fccf9091 bb009193 90e08c17 9d0780f3  ................
 0490 84e88093 bc008091 bc0087ff fccf8091  ................
 04a0 bb001196 8c93df91 cf911f91 0f91ff90  ................
 04b0 0c949101 ef92ff92 0f931f93 cf93df93  ................
 04c0 cdb7deb7 28970fb6 f894debf 0fbecdbf  ....(...........
 04d0 88e0eee0 f1e0de01 11960190 0d928a95  ................
 04e0 e1f787ee 90e09f93 8f930e94 2f070f90  ............/...
 04f0 0f9000e0 10e081ed e82e80e0 f82ec801  ................
 0500 07969f93 8f931f93 0f93ff92 ef920e94  ................
 0510 2f0748e0 50e0602f ce010196 0e94f501  /.H.P.`/........
 0520 085f1f4f 0f900f90 0f900f90 0f900f90  ._.O............
 0530 00381105 21f781ec 90e09f93 8f930e94  .8..!...........
 0540 2f070f90 0f902896 0fb6f894 debf0fbe  /.....(.........
 0550 cdbfdf91 cf911f91 0f91ff90 ef900895  ................
 0560 9f92af92 bf92cf92 df92ef92 ff920f93  ................
 0570 1f93cf93 df935c01 962e8a01 7a01e60e  ......\.....z...
 0580 f11c80e8 e816f104 20f488e0 c82ed12c  ........ ......,
 0590 25c0ff92 ef921f92 6f9388e6 90e09f93  %.......o.......
 05a0 8f930e94 2f070f90 0f900f90 0f900f90  ..../...........
 05b0 0f901dc0 892d8770 b9f0e601 c81bd109  .....-.p........
 05c0 0c171d07 08f4e801 ae01692d c5010e94  ..........i-....
 05d0 f5019c0e ac0ebd1e 0c1b1d0b 892d90e0  .............-..
 05e0 8e159f05 38f303c0 c8e0d0e0 e9cfdf91  ....8...........
 05f0 cf911f91 0f91ff90 ef90df90 cf90bf90  ................
 0600 af909f90 08952f92 3f924f92 5f926f92  ....../.?.O._.o.
 0610 7f928f92 9f92af92 bf92cf92 df92ef92  ................
 0620 ff920f93 1f93cf93 df93cdb7 deb72997  ..............).
 0630 0fb6f894 debf0fbe cdbf4c01 5b0189e0  ..........L.[...
 0640 ebe3f1e0 9e012f5f 3f4f7901 d9010190  ....../_?Oy.....
 0650 0d928a95 e1f700e0 10e087ea 282e81e0  ............(...
 0660 382e91ea 492e91e0 592e28e9 622e21e0  8...I...Y.(.b.!.
 0670 722e1f93 0f933f92 2f920e94 2f076401  r.....?./.../.d.
 0680 c00ed11e 0f900f90 0f900f90 d6018c91  ................
 0690 1f928f93 5f924f92 0e942f07 f801e770  ...._.O.../....p
 06a0 ff27d601 8d916d01 90ee980f 0f900f90  .'....m.........
 06b0 0f900f90 9f3508f0 8ee2ee0d ff1d8083  .....5..........
 06c0 0f5f1f4f c8018770 9927892b 31f5ff92  ._.O...p.'.+1...
 06d0 ef927f92 6f920e94 2f070f90 0f900f90  ....o.../.......
 06e0 0f900a15 1b0528f2 29960fb6 f894debf  ......(.).......
 06f0 0fbecdbf df91cf91 1f910f91 ff90ef90  ................
 0700 df90cf90 bf90af90 9f908f90 7f906f90  ..............o.
 0710 5f904f90 3f902f90 08950a15 1b0508f4  _.O.?./.........
 0720 b5cfd5cf 2fef87ea 91e62150 80409040  ..../.....!P.@.@
 0730 e1f700c0 00001092 46011092 45010895  ........F...E...
 0740 80914501 90914601 08958f92 9f92bf92  ..E...F.........
 0750 cf92df92 ef92ff92 0f931f93 cf93df93  ................
 0760 00d000d0 1f92cdb7 deb7fe01 319625e0  ............1.%.
 0770 df011d92 2a95e9f7 10924601 10924501  ....*.....F...E.
 0780 5e98569a bfef20e7 32e0b150 20403040  ^.V... .2..P @0@
 0790 e1f700c0 00005e9a 56982fe1 4e9b0cc0  ......^.V./.N...
 07a0 4ae04a95 f1f700c0 2150c1f7 24e030e0  J.J.....!P..$.0.
 07b0 30934601 20934501 20914501 30914601  0.F. .E. .E.0.F.
 07c0 232bf1f4 23e34e99 0cc05ae0 5a95f1f7  #+..#.N...Z.Z...
 07d0 00c02150 c1f724e0 30e03093 46012093  ..!P..$.0.0.F. .
 07e0 450123e3 4e9b0cc0 aae0aa95 f1f700c0  E.#.N...........
 07f0 2150c1f7 24e030e0 30934601 20934501  !P..$.0.0.F. .E.
 0800 20914501 30914601 232b09f0 49c030e0   .E.0.F.#+..I.0.
 0810 c12cd12c 7601c394 44e0842e 912c27e0  .,.,v...D....,'.
 0820 44e24e99 0cc0bae0 ba95f1f7 00c04150  D.N...........AP
 0830 c1f79092 46018092 45012fef 35e04091  ....F...E./.5.@.
 0840 45015091 4601452b 21f54aeb 4a95f1f7  E.P.F.E+!.J.J...
 0850 00c04e9b 11c08f01 030f111d d801bc90  ..N.............
 0860 b701a601 022e04c0 440f551f 661f771f  ........D.U.f.w.
 0870 0a94d2f7 4b294c93 43e34e9b 0ac0bae0  ....K)L.C.N.....
 0880 ba95f1f7 00c04150 c1f79092 46018092  ......AP....F...
 0890 45012150 27ffc4cf 3f5f3530 08f4bfcf  E.!P'...?_50....
 08a0 20914501 30914601 232bc9f4 39812a81   .E.0.F.#+..9.*.
 08b0 230f3b81 230f3c81 230f3d81 231739f0  #.;.#.<.#.=.#.9.
 08c0 83e090e0 90934601 80934501 08c0dc01  ......F...E.....
 08d0 ce010596 21912d93 e817f907 d9f70f90  ....!.-.........
 08e0 0f900f90 0f900f90 df91cf91 1f910f91  ................
 08f0 ff90ef90 df90cf90 bf909f90 8f900895  ................
 0900 8f929f92 af92bf92 cf92df92 ef92ff92  ................
 0910 0f931f93 cf93df93 00d000d0 cdb7deb7  ................
 0920 8c015b01 19821a82 1b821c82 ce010196  ..[.............
 0930 0e94a503 80914501 90914601 892b09f0  ......E...F..+..
 0940 4dc06b81 70e080e0 90e00e94 f505f801  M.k.p...........
 0950 60837183 82839383 698170e0 80e090e0  `.q.....i.p.....
 0960 0e94f505 6b017c01 f5016083 71838283  ....k.|...`.q...
 0970 9383f801 80809180 a280b380 20e030e0  ............ .0.
 0980 a901c501 b4010e94 f00587fd 0ac020e0  .............. .
 0990 30e048e4 52e4c501 b4010e94 a7061816  0.H.R...........
 09a0 1cf482e0 90e016c0 20e030e0 40ea51e4  ........ .0.@.Q.
 09b0 c701b601 0e94f005 87fd0ac0 20e030e0  ............ .0.
 09c0 44eb52e4 c701b601 0e94a706 181634f4  D.R...........4.
 09d0 81e090e0 90934601 80934501 0f900f90  ......F...E.....
 09e0 0f900f90 df91cf91 1f910f91 ff90ef90  ................
 09f0 df90cf90 bf90af90 9f908f90 0895cf93  ................
 0a00 df9300d0 00d0cdb7 deb7be01 6f5f7f4f  ............o_.O
 0a10 0e948004 0f900f90 0f900f90 df91cf91  ................
 0a20 0895cf93 df9300d0 00d0cdb7 deb7bc01  ................
 0a30 ce010196 0e948004 0f900f90 0f900f90  ................
 0a40 df91cf91 089526e6 36e646ee 5fe30e94  ......&.6.F._...
 0a50 ac0620e0 30e040e0 52e40e94 84050895  .. .0.@.R.......
 0a60 23e333e9 48e853e4 0e948405 0895cf93  #.3.H.S.........
 0a70 df93cdb7 deb72897 0fb6f894 debf0fbe  ......(.........
 0a80 cdbf86e1 91e09f93 8f930e94 19070e94  ................
 0a90 92030f90 0f907e01 25e0e20e f11cce01  ......~.%.......
 0aa0 01966c01 8ee1882e 81e0982e 0ce211e0  ..l.............
 0ab0 90e3a92e 91e0b92e b601c701 0e948004  ................
 0ac0 9f928f92 0e941907 ff92ef92 1f930f93  ................
 0ad0 0e941907 bf92af92 0e941907 df92cf92  ................
 0ae0 1f930f93 0e941907 9fef23ed 80e39150  ..........#....P
 0af0 20408040 e1f700c0 00000fb6 f894debf   @.@............
 0b00 0fbecdbf d9cf5058 bb27aa27 0e949b05  ......PX.'.'....
 0b10 0c946d06 0e945f06 38f00e94 660620f0  ..m..._.8...f. .
 0b20 39f49f3f 19f426f4 0c945c06 0ef4e095  9..?..&...\.....
 0b30 e7fb0c94 5606e92f 0e947e06 58f3ba17  ....V../..~.X...
 0b40 62077307 84079507 20f079f4 a6f50c94  b.s..... .y.....
 0b50 a0060ef4 e0950b2e ba2fa02d 0b01b901  ........./.-....
 0b60 90010c01 ca01a001 1124ff27 591b99f0  .........$.'Y...
 0b70 593f50f4 503e68f1 1a16f040 a22f232f  Y?P.P>h....@./#/
 0b80 342f4427 585ff3cf 46953795 2795a795  4/D'X_..F.7.'...
 0b90 f0405395 c9f77ef4 1f16ba0b 620b730b  .@S...~.....b.s.
 0ba0 840bbaf0 9150a1f0 ff0fbb1f 661f771f  .....P......f.w.
 0bb0 881fc2f7 0ec0ba0f 621f731f 841f48f4  ........b.s...H.
 0bc0 87957795 6795b795 f7959e3f 08f0b0cf  ..w.g......?....
 0bd0 9395880f 08f09927 ee0f9795 87950895  .......'........
 0be0 0e943206 08f481e0 0895e894 09c097fb  ..2.............
 0bf0 3ef49095 80957095 61957f4f 8f4f9f4f  >.....p.a..O.O.O
 0c00 9923a9f0 f92f96e9 bb279395 f6958795  .#.../...'......
 0c10 77956795 b795f111 f8cffaf4 bb0f11f4  w.g.............
 0c20 60ff1bc0 6f5f7f4f 8f4f9f4f 16c08823  `...o_.O.O.O...#
 0c30 11f096e9 11c07723 21f09ee8 872f762f  ......w#!..../v/
 0c40 05c06623 71f096e8 862f70e0 60e02af0  ..f#q..../p.`.*.
 0c50 9a95660f 771f881f daf7880f 96958795  ..f.w...........
 0c60 97f90895 990f0008 550faa0b e0e8feef  ........U.......
 0c70 16161706 e807f907 c0f01216 1306e407  ................
 0c80 f50798f0 621b730b 840b950b 39f40a26  ....b.s.....9..&
 0c90 61f0232b 242b252b 21f40895 0a2609f4  a.#+$+%+!....&..
 0ca0 a140a695 8fef811d 811d0895 97f99f67  .@.............g
 0cb0 80e870e0 60e00895 9fef80ec 08950024  ..p.`..........$
 0cc0 0a941616 17061806 09060895 00240a94  .............$..
 0cd0 12161306 14060506 0895092e 0394000c  ................
 0ce0 11f48823 52f0bb0f 40f4bf2b 11f460ff  ...#R...@..+..`.
 0cf0 04c06f5f 7f4f8f4f 9f4f0895 57fd9058  ..o_.O.O.O..W..X
 0d00 440f551f 59f05f3f 71f04795 880f97fb  D.U.Y._?q.G.....
 0d10 991f61f0 9f3f79f0 87950895 12161306  ..a..?y.........
 0d20 1406551f f2cf4695 f1df08c0 16161706  ..U...F.........
 0d30 1806991f f1cf8695 71056105 08940895  ........q.a.....
 0d40 e894bb27 66277727 cb0197f9 08950e94  ...'f'w'........
 0d50 320608f4 8fef0895 0e94bf06 0c946d06  2.............m.
 0d60 0e945f06 38f00e94 660620f0 952311f0  .._.8...f. ..#..
 0d70 0c945606 0c945c06 11240c94 a1060e94  ..V...\..$......
 0d80 7e0670f3 959fc1f3 950f50e0 551f629f  ~.p.......P.U.b.
 0d90 f001729f bb27f00d b11d639f aa27f00d  ..r..'....c..'..
 0da0 b11daa1f 649f6627 b00da11d 661f829f  ....d.f'....f...
 0db0 2227b00d a11d621f 739fb00d a11d621f  "'....b.s.....b.
 0dc0 839fa00d 611d221f 749f3327 a00d611d  ....a.".t.3'..a.
 0dd0 231f849f 600d211d 822f762f 6a2f1124  #...`.!../v/j/.$
 0de0 9f575040 9af0f1f0 88234af0 ee0fff1f  .WP@.....#J.....
 0df0 bb1f661f 771f881f 91505040 a9f79e3f  ..f.w....PP@...?
 0e00 510580f0 0c945606 0c94a106 5f3fe4f3  Q.....V....._?..
 0e10 983ed4f3 86957795 6795b795 f795e795  .>....w.g.......
 0e20 9f5fc1f7 fe2b880f 911d9695 879597f9  ._...+..........
 0e30 0895a0e0 b0e0efe1 f7e00c94 f609ae01  ................
 0e40 4b5f5f4f fa016191 7191af01 80914901  K__O..a.q.....I.
 0e50 90914a01 0e945507 e2e00c94 120aa0e0  ..J...U.........
 0e60 b0e0e5e3 f7e00c94 f409ae01 495f5f4f  ............I__O
 0e70 da016d91 7d91ad01 07e411e0 f8018281  ..m.}...........
 0e80 9381dc01 13962c91 13972860 13962c93  ......,...(`..,.
 0e90 0e945507 d8011296 ed91fc91 13972381  ..U...........#.
 0ea0 277f2383 e4e00c94 100aabe0 b0e0ebe5  '.#.............
 0eb0 f7e00c94 e6096c01 7b018a01 fc011782  ......l.{.......
 0ec0 16828381 81ffccc1 ce010196 3c01f601  ............<...
 0ed0 9381f701 93fd8591 93ff8191 7f018823  ...............#
 0ee0 09f4bac1 853239f4 93fd8591 93ff8191  .....29.........
 0ef0 7f018532 29f4b601 90e00e94 4c09e7cf  ...2).......L...
 0f00 912c212c 312cffe1 f315d8f0 8b3279f0  .,!,1,.......2y.
 0f10 38f48032 79f08332 a1f4232d 20611dc0  8..2y..2..#- a..
 0f20 8d3261f0 803369f4 232d2160 16c0832d  .2a..3i.#-!`...-
 0f30 8260382e e32de460 3e2e2ac0 f32df860  .`8..-.`>.*..-.`
 0f40 1dc037fc 2dc020ed 280f2a30 40f08e32  ..7.-. .(.*0@..2
 0f50 b9f436fc 81c1232d 2064322e 19c036fe  ..6...#- d2...6.
 0f60 06c08ae0 989e200d 1124922e 11c0eae0  ...... ..$......
 0f70 2e9e200d 1124222e f32df062 3f2e08c0  .. ..$"..-.b?...
 0f80 8c3621f4 832d8068 382e02c0 883641f4  .6!..-.h8....6A.
 0f90 f70193fd 859193ff 81917f01 8111b3cf  ................
 0fa0 982f9f7d 95549330 28f40c5f 1f4f9fe3  ./.}.T.0(.._.O..
 0fb0 99830dc0 833631f0 833771f0 833509f0  .....61..7q..5..
 0fc0 59c021c0 f8018081 89830e5f 1f4f8824  Y.!........_.O.$
 0fd0 8394912c 530113c0 2801f2e0 4f0e511c  ...,S...(...O.Q.
 0fe0 f801a080 b18036fe 03c0692d 70e002c0  ......6...i-p...
 0ff0 6fef7fef c5010e94 41094c01 8201f32d  o.......A.L....-
 1000 ff773f2e 16c02801 22e0420e 511cf801  .w?...(.".B.Q...
 1010 a080b180 36fe03c0 692d70e0 02c06fef  ....6...i-p...o.
 1020 7fefc501 0e943609 4c01f32d f0683f2e  ......6.L..-.h?.
 1030 820133fc 1bc0822d 90e08816 9906b0f4  ..3....-........
 1040 b60180e2 90e00e94 4c092a94 f4cff501  ........L.*.....
 1050 37fc8591 37fe8191 5f01b601 90e00e94  7...7..._.......
 1060 4c092110 2a9421e0 821a9108 81149104  L.!.*.!.........
 1070 71f7e8c0 843611f0 893641f5 f80137fe  q....6...6A...7.
 1080 07c06081 71818281 93810c5f 1f4f08c0  ..`.q......_.O..
 1090 60817181 072e000c 880b990b 0e5f1f4f  `.q.........._.O
 10a0 f32dff76 3f2e97ff 09c09095 80957095  .-.v?.........p.
 10b0 61957f4f 8f4f9f4f f0683f2e 2ae030e0  a..O.O.O.h?.*.0.
 10c0 a3010e94 8809882e 861845c0 853731f4  ..........E..71.
 10d0 232d2f7e b22e2ae0 30e025c0 932d997f  #-/~..*.0.%..-..
 10e0 b92e8f36 c1f018f4 883579f0 b5c08037  ...6.....5y....7
 10f0 19f08837 21f0b0c0 e92fe061 be2eb4fe  ...7!..../.a....
 1100 0dc0fb2d f460bf2e 09c034fe 0ac0292f  ...-.`....4...)/
 1110 2660b22e 06c028e0 30e005c0 20e130e0  &`....(.0... .0.
 1120 02c020e1 32e0f801 b7fe07c0 60817181  .. .2.......`.q.
 1130 82819381 0c5f1f4f 06c06081 718180e0  ....._.O..`.q...
 1140 90e00e5f 1f4fa301 0e948809 882e8618  ..._.O..........
 1150 fb2dff77 3f2e36fe 0dc0232d 2e7fa22e  .-.w?.6...#-....
 1160 891458f4 34fe0bc0 32fc09c0 832d8e7e  ..X.4...2....-.~
 1170 a82e05c0 b82ca32c 03c0b82c 01c0b92c  .....,.,...,...,
 1180 a4fe0fc0 fe01e80d f11d8081 803321f4  .............3!.
 1190 9a2d997e a92e09c0 a2fe06c0 b394b394  .-.~............
 11a0 04c08a2d 867809f0 b394a3fc 11c0a0fe  ...-.x..........
 11b0 06c0b214 88f4280c 922c9b18 0ec0b214  ......(..,......
 11c0 60f4b601 80e290e0 0e944c09 b394f7cf  `.........L.....
 11d0 b21418f4 2b1802c0 982c212c a4fe10c0  ....+....,!,....
 11e0 b60180e3 90e00e94 4c09a2fe 17c0a1fc  ........L.......
 11f0 03c088e7 90e002c0 88e590e0 b6010cc0  ................
 1200 8a2d8678 59f0a1fe 02c08be2 01c080e2  .-.xY...........
 1210 a7fc8de2 b60190e0 0e944c09 891438f4  ..........L...8.
 1220 b60180e3 90e00e94 4c099a94 f7cf8a94  ........L.......
 1230 f301e80d f11d8081 b60190e0 0e944c09  ..............L.
 1240 8110f5cf 222009f4 42ceb601 80e290e0  ...." ..B.......
 1250 0e944c09 2a94f6cf f6018681 978102c0  ..L.*...........
 1260 8fef9fef 2b96e2e1 0c94020a fc010590  ....+...........
 1270 61507040 0110d8f7 80959095 8e0f9f1f  aPp@............
 1280 0895fc01 61507040 01900110 d8f78095  ....aPp@........
 1290 90958e0f 9f1f0895 0f931f93 cf93df93  ................
 12a0 fb012381 21fd03c0 8fef9fef 2cc022ff  ..#.!.......,.".
 12b0 16c04681 57812481 35814217 530744f4  ..F.W.$.5.B.S.D.
 12c0 a081b181 9d012f5f 3f4f3183 20838c93  ....../_?O1. ...
 12d0 26813781 2f5f3f4f 37832683 14c08b01  &.7./_?O7.&.....
 12e0 ec01fb01 0084f185 e02d0995 892be1f6  .........-...+..
 12f0 d8011696 8d919c91 17970196 17969c93  ................
 1300 8e931697 ce01df91 cf911f91 0f910895  ................
 1310 fa01aa27 283051f1 203181f1 e8946f93  ...'(0Q. 1....o.
 1320 6e7f6e5f 7f4f8f4f 9f4faf4f b1e03ed0  n.n_.O.O.O.O..>.
 1330 b4e03cd0 670f781f 891f9a1f a11d680f  ..<.g.x.......h.
 1340 791f8a1f 911da11d 6a0f711d 811d911d  y.......j.q.....
 1350 a11d20d0 09f46894 3f912ae0 269f1124  .. ...h.?.*.&..$
 1360 3019305d 3193def6 cf010895 462f4770  0.0]1.......F/Gp
 1370 405d4193 b3e00fd0 c9f7f6cf 462f4f70  @]A.........F/Op
 1380 405d4a33 18f0495d 31fd4052 419302d0  @]J3..I]1.@RA...
 1390 a9f7eacf b4e0a695 97958795 77956795  ............w.g.
 13a0 ba95c9f7 00976105 71050895 9b01ac01  ......a.q.......
 13b0 0a2e0694 57954795 37952795 ba95c9f7  ....W.G.7.'.....
 13c0 620f731f 841f951f a01d0895 2f923f92  b.s........./.?.
 13d0 4f925f92 6f927f92 8f929f92 af92bf92  O._.o...........
 13e0 cf92df92 ef92ff92 0f931f93 cf93df93  ................
 13f0 cdb7deb7 ca1bdb0b 0fb6f894 debf0fbe  ................
 1400 cdbf0994 2a883988 48885f84 6e847d84  ....*.9.H._.n.}.
 1410 8c849b84 aa84b984 c884df80 ee80fd80  ................
 1420 0c811b81 aa81b981 ce0fd11d 0fb6f894  ................
 1430 debf0fbe cdbfed01 0895f894 ffcf      ..............  
Contents of section .comment:
 0000 4743433a 2028474e 55292035 2e342e30  GCC: (GNU) 5.4.0
 0010 00                                   .               
Contents of section .note.gnu.avr.deviceinfo:
 0000 04000000 2d000000 01000000 41565200  ....-.......AVR.
 0010 00000000 00800000 00010000 00080000  ................
 0020 00000000 00040000 08000000 01000000  ................
 0030 0061746d 65676133 32387000 00000000  .atmega328p.....
Contents of section .debug_info:
 0000 f0050000 02000000 00000401 00000000  ................
 0010 00000000 020f0000 00010803 17000000  ................
 0020 02070414 00000005 1b000000 ff030006  ................
 0030 20000000 00002200 00000105 03000081   .....".........
 0040 00072900 00000000 14000000 010503c6  ..).............
 0050 00800008 2e000000 00001400 00000105  ................
 0060 03c00080 00093500 00000000 14000000  ......5.........
 0070 010503c1 0080000a 3c000000 00001400  ........<.......
 0080 00000105 03c20080 000b4300 00000000  ..........C.....
 0090 1b000000 010503c4 0080000c 49000000  ............I...
 00a0 00001400 00000105 03bd0080 000d4f00  ..............O.
 00b0 00000000 14000000 010503b8 0080000e  ................
 00c0 54000000 00001400 00000105 03bc0080  T...............
 00d0 000f5900 00000000 14000000 010503b9  ..Y.............
 00e0 00800010 5e000000 00001400 00000105  ....^...........
 00f0 03bb0080 00116300 00000000 14000000  ......c.........
 0100 010503ba 00800012 68000000 00001400  ........h.......
 0110 00000105 036f0080 00136f00 00000000  .....o....o.....
 0120 14000000 01050336 00800014 75000000  .......6....u...
 0130 00001400 00000105 03800080 00157c00  ..............|.
 0140 00000000 14000000 01050381 00800016  ................
 0150 83000000 00001400 00000105 03820080  ................
 0160 00178a00 00000000 1b000000 01050384  ................
 0170 00800018 90000000 00001b00 00000105  ................
 0180 03880080 00199600 00000000 1b000000  ................
 0190 0105038a 0080001a 9c000000 00001b00  ................
 01a0 00000105 03860080 001ba100 00000000  ................
 01b0 14000000 01050343 0080001c a7000000  .......C........
 01c0 00001400 00000105 03700080 001dae00  .........p......
 01d0 00000000 14000000 01050337 0080001e  ...........7....
 01e0 b4000000 00001400 00000105 03b00080  ................
 01f0 001fbb00 00000000 14000000 010503b1  ................
 0200 00800020 c2000000 00001400 00000105  ... ............
 0210 03b20080 0021c800 00000000 14000000  .....!..........
 0220 010503b4 00800022 ce000000 00001400  ......."........
 0230 00000105 03b30080 0023d400 00000000  .........#......
 0240 14000000 010503b6 00800024 d9000000  ...........$....
 0250 00001400 00000105 03430080 0025df00  .........C...%..
 0260 00000000 14000000 0105037c 00800026  ...........|...&
 0270 e5000000 00001b00 00000105 03780080  .............x..
 0280 0027e900 00000000 14000000 0105037a  .'.............z
 0290 00800028 f0000000 00001400 00000105  ...(............
 02a0 037b0080 0029f700 00000000 14000000  .{...)..........
 02b0 0105037e 0080002a fd000000 00001400  ...~...*........
 02c0 00000105 03500080 002b0201 00000000  .....P...+......
 02d0 14000000 0105037f 0080002c 08010000  ...........,....
 02e0 00001400 00000105 03250080 002d0e01  .........%...-..
 02f0 00000000 14000000 01050324 0080002e  ...........$....
 0300 13010000 00001400 00000105 03230080  .............#..
 0310 002f1801 00000000 14000000 01050328  ./.............(
 0320 00800030 1e010000 00001400 00000105  ...0............
 0330 03270080 00312301 00000000 14000000  .'...1#.........
 0340 01050326 00800032 28010000 00001400  ...&...2(.......
 0350 00000105 032b0080 00332e01 00000000  .....+...3......
 0360 14000000 0105032a 00800034 33010000  .......*...43...
 0370 00001400 00000105 03290080 00353801  .........)...58.
 0380 00000000 14000000 01050348 00800036  ...........H...6
 0390 3e010000 00001400 00000105 03470080  >............G..
 03a0 00374401 00000000 14000000 01050346  .7D............F
 03b0 00800038 4a010000 00001400 00000105  ...8J...........
 03c0 03450080 00395101 00000000 14000000  .E...9Q.........
 03d0 01050344 0080003a 58010000 00001400  ...D...:X.......
 03e0 00000105 036e0080 003b5f01 00000000  .....n...;_.....
 03f0 14000000 01050335 0080003c 65010000  .......5...<e...
 0400 00001400 00000105 03430080 003d6b01  .........C...=k.
 0410 00000000 14000000 01050369 0080003e  ...........i...>
 0420 71010000 00001400 00000105 033d0080  q............=..
 0430 003f7701 00000000 14000000 0105033c  .?w............<
 0440 00800040 7c010000 00001400 00000105  ...@|...........
 0450 03680080 00418201 00000000 14000000  .h...A..........
 0460 0105036d 00800042 89010000 00001400  ...m...B........
 0470 00000105 036c0080 00439001 00000000  .....l...C......
 0480 14000000 0105036b 00800044 97010000  .......k...D....
 0490 00001400 00000105 033b0080 00459d01  .........;...E..
 04a0 00000000 14000000 0105034e 00800046  ...........N...F
 04b0 a2010000 00001400 00000105 034d0080  .............M..
 04c0 0047a701 00000000 14000000 0105034c  .G.............L
 04d0 00800048 ac010000 00001400 00000105  ...H............
 04e0 03600080 0049b301 00000000 14000000  .`...I..........
 04f0 01050364 0080004a b7010000 00001400  ...d...J........
 0500 00000105 03660080 004bbe01 00000000  .....f...K......
 0510 14000000 01050361 0080004c c4010000  .......a...L....
 0520 00001400 00000105 035f0080 004dc901  ........._...M..
 0530 00000000 1b000000 0105035d 0080004e  ...........]...N
 0540 cc010000 00001400 00000105 03570080  .............W..
 0550 004fd301 00000000 14000000 01050355  .O.............U
 0560 00800050 d9010000 00001400 00000105  ...P............
 0570 03540080 0051df01 00000000 14000000  .T...Q..........
 0580 01050353 00800052 e4010000 00001400  ...S...R........
 0590 00000105 034b0080 0053eb01 00000000  .....K...S......
 05a0 14000000 0105034a 00800054 f2010000  .......J...T....
 05b0 00001400 00000105 033e0080 0055f901  .........>...U..
 05c0 00000000 1b000000 01050341 00800056  ...........A...V
 05d0 fe010000 00001400 00000105 03400080  .............@..
 05e0 00570302 00000000 14000000 0105033f  .W.............?
 05f0 00800000                             ....            
Contents of section .debug_abbrev:
 0000 01110125 0e100600 00022400 030e0b0b  ...%......$.....
 0010 3e0b0000 03240003 0e0b0b3e 0b000004  >....$.....>....
 0020 01014913 00000521 0049132f 05000006  ..I....!.I./....
 0030 3400030e 3a0b3b0b 49133f0c 020a0000  4...:.;.I.?.....
 0040 07340003 0e3a0b3b 0b49133f 0c020a00  .4...:.;.I.?....
 0050 00083400 030e3a0b 3b0b4913 3f0c020a  ..4...:.;.I.?...
 0060 00000934 00030e3a 0b3b0b49 133f0c02  ...4...:.;.I.?..
 0070 0a00000a 3400030e 3a0b3b0b 49133f0c  ....4...:.;.I.?.
 0080 020a0000 0b340003 0e3a0b3b 0b49133f  .....4...:.;.I.?
 0090 0c020a00 000c3400 030e3a0b 3b0b4913  ......4...:.;.I.
 00a0 3f0c020a 00000d34 00030e3a 0b3b0b49  ?......4...:.;.I
 00b0 133f0c02 0a00000e 3400030e 3a0b3b0b  .?......4...:.;.
 00c0 49133f0c 020a0000 0f340003 0e3a0b3b  I.?......4...:.;
 00d0 0b49133f 0c020a00 00103400 030e3a0b  .I.?......4...:.
 00e0 3b0b4913 3f0c020a 00001134 00030e3a  ;.I.?......4...:
 00f0 0b3b0b49 133f0c02 0a000012 3400030e  .;.I.?......4...
 0100 3a0b3b0b 49133f0c 020a0000 13340003  :.;.I.?......4..
 0110 0e3a0b3b 0b49133f 0c020a00 00143400  .:.;.I.?......4.
 0120 030e3a0b 3b0b4913 3f0c020a 00001534  ..:.;.I.?......4
 0130 00030e3a 0b3b0b49 133f0c02 0a000016  ...:.;.I.?......
 0140 3400030e 3a0b3b0b 49133f0c 020a0000  4...:.;.I.?.....
 0150 17340003 0e3a0b3b 0b49133f 0c020a00  .4...:.;.I.?....
 0160 00183400 030e3a0b 3b0b4913 3f0c020a  ..4...:.;.I.?...
 0170 00001934 00030e3a 0b3b0b49 133f0c02  ...4...:.;.I.?..
 0180 0a00001a 3400030e 3a0b3b0b 49133f0c  ....4...:.;.I.?.
 0190 020a0000 1b340003 0e3a0b3b 0b49133f  .....4...:.;.I.?
 01a0 0c020a00 001c3400 030e3a0b 3b0b4913  ......4...:.;.I.
 01b0 3f0c020a 00001d34 00030e3a 0b3b0b49  ?......4...:.;.I
 01c0 133f0c02 0a00001e 3400030e 3a0b3b0b  .?......4...:.;.
 01d0 49133f0c 020a0000 1f340003 0e3a0b3b  I.?......4...:.;
 01e0 0b49133f 0c020a00 00203400 030e3a0b  .I.?..... 4...:.
 01f0 3b0b4913 3f0c020a 00002134 00030e3a  ;.I.?.....!4...:
 0200 0b3b0b49 133f0c02 0a000022 3400030e  .;.I.?....."4...
 0210 3a0b3b0b 49133f0c 020a0000 23340003  :.;.I.?.....#4..
 0220 0e3a0b3b 0b49133f 0c020a00 00243400  .:.;.I.?.....$4.
 0230 030e3a0b 3b0b4913 3f0c020a 00002534  ..:.;.I.?.....%4
 0240 00030e3a 0b3b0b49 133f0c02 0a000026  ...:.;.I.?.....&
 0250 3400030e 3a0b3b0b 49133f0c 020a0000  4...:.;.I.?.....
 0260 27340003 0e3a0b3b 0b49133f 0c020a00  '4...:.;.I.?....
 0270 00283400 030e3a0b 3b0b4913 3f0c020a  .(4...:.;.I.?...
 0280 00002934 00030e3a 0b3b0b49 133f0c02  ..)4...:.;.I.?..
 0290 0a00002a 3400030e 3a0b3b0b 49133f0c  ...*4...:.;.I.?.
 02a0 020a0000 2b340003 0e3a0b3b 0b49133f  ....+4...:.;.I.?
 02b0 0c020a00 002c3400 030e3a0b 3b0b4913  .....,4...:.;.I.
 02c0 3f0c020a 00002d34 00030e3a 0b3b0b49  ?.....-4...:.;.I
 02d0 133f0c02 0a00002e 3400030e 3a0b3b0b  .?......4...:.;.
 02e0 49133f0c 020a0000 2f340003 0e3a0b3b  I.?...../4...:.;
 02f0 0b49133f 0c020a00 00303400 030e3a0b  .I.?.....04...:.
 0300 3b0b4913 3f0c020a 00003134 00030e3a  ;.I.?.....14...:
 0310 0b3b0b49 133f0c02 0a000032 3400030e  .;.I.?.....24...
 0320 3a0b3b0b 49133f0c 020a0000 33340003  :.;.I.?.....34..
 0330 0e3a0b3b 0b49133f 0c020a00 00343400  .:.;.I.?.....44.
 0340 030e3a0b 3b0b4913 3f0c020a 00003534  ..:.;.I.?.....54
 0350 00030e3a 0b3b0b49 133f0c02 0a000036  ...:.;.I.?.....6
 0360 3400030e 3a0b3b0b 49133f0c 020a0000  4...:.;.I.?.....
 0370 37340003 0e3a0b3b 0b49133f 0c020a00  74...:.;.I.?....
 0380 00383400 030e3a0b 3b0b4913 3f0c020a  .84...:.;.I.?...
 0390 00003934 00030e3a 0b3b0b49 133f0c02  ..94...:.;.I.?..
 03a0 0a00003a 3400030e 3a0b3b0b 49133f0c  ...:4...:.;.I.?.
 03b0 020a0000 3b340003 0e3a0b3b 0b49133f  ....;4...:.;.I.?
 03c0 0c020a00 003c3400 030e3a0b 3b0b4913  .....<4...:.;.I.
 03d0 3f0c020a 00003d34 00030e3a 0b3b0b49  ?.....=4...:.;.I
 03e0 133f0c02 0a00003e 3400030e 3a0b3b0b  .?.....>4...:.;.
 03f0 49133f0c 020a0000 3f340003 0e3a0b3b  I.?.....?4...:.;
 0400 0b49133f 0c020a00 00403400 030e3a0b  .I.?.....@4...:.
 0410 3b0b4913 3f0c020a 00004134 00030e3a  ;.I.?.....A4...:
 0420 0b3b0b49 133f0c02 0a000042 3400030e  .;.I.?.....B4...
 0430 3a0b3b0b 49133f0c 020a0000 43340003  :.;.I.?.....C4..
 0440 0e3a0b3b 0b49133f 0c020a00 00443400  .:.;.I.?.....D4.
 0450 030e3a0b 3b0b4913 3f0c020a 00004534  ..:.;.I.?.....E4
 0460 00030e3a 0b3b0b49 133f0c02 0a000046  ...:.;.I.?.....F
 0470 3400030e 3a0b3b0b 49133f0c 020a0000  4...:.;.I.?.....
 0480 47340003 0e3a0b3b 0b49133f 0c020a00  G4...:.;.I.?....
 0490 00483400 030e3a0b 3b0b4913 3f0c020a  .H4...:.;.I.?...
 04a0 00004934 00030e3a 0b3b0b49 133f0c02  ..I4...:.;.I.?..
 04b0 0a00004a 3400030e 3a0b3b0b 49133f0c  ...J4...:.;.I.?.
 04c0 020a0000 4b340003 0e3a0b3b 0b49133f  ....K4...:.;.I.?
 04d0 0c020a00 004c3400 030e3a0b 3b0b4913  .....L4...:.;.I.
 04e0 3f0c020a 00004d34 00030e3a 0b3b0b49  ?.....M4...:.;.I
 04f0 133f0c02 0a00004e 3400030e 3a0b3b0b  .?.....N4...:.;.
 0500 49133f0c 020a0000 4f340003 0e3a0b3b  I.?.....O4...:.;
 0510 0b49133f 0c020a00 00503400 030e3a0b  .I.?.....P4...:.
 0520 3b0b4913 3f0c020a 00005134 00030e3a  ;.I.?.....Q4...:
 0530 0b3b0b49 133f0c02 0a000052 3400030e  .;.I.?.....R4...
 0540 3a0b3b0b 49133f0c 020a0000 53340003  :.;.I.?.....S4..
 0550 0e3a0b3b 0b49133f 0c020a00 00543400  .:.;.I.?.....T4.
 0560 030e3a0b 3b0b4913 3f0c020a 00005534  ..:.;.I.?.....U4
 0570 00030e3a 0b3b0b49 133f0c02 0a000056  ...:.;.I.?.....V
 0580 3400030e 3a0b3b0b 49133f0c 020a0000  4...:.;.I.?.....
 0590 57340003 0e3a0b3b 0b49133f 0c020a00  W4...:.;.I.?....
 05a0 0000                                 ..              
Contents of section .debug_line:
 0000 16000000 02001000 00000201 fb0e0a00  ................
 0010 01010101 00000001 0000               ..........      
Contents of section .debug_str:
 0000 6176722d 6c696263 20322e30 2e300075  avr-libc 2.0.0.u
 0010 696e7438 5f740075 696e7431 365f7400  int8_t.uint16_t.
 0020 5f5f6565 70726f6d 00554452 30005543  __eeprom.UDR0.UC
 0030 53523041 00554353 52304200 55435352  SR0A.UCSR0B.UCSR
 0040 30430055 42525230 00545741 4d520054  0C.UBRR0.TWAMR.T
 0050 57425200 54574352 00545753 52005457  WBR.TWCR.TWSR.TW
 0060 44520054 57415200 54494d53 4b310054  DR.TWAR.TIMSK1.T
 0070 49465231 00544343 52314100 54434352  IFR1.TCCR1A.TCCR
 0080 31420054 43435231 43005443 4e543100  1B.TCCR1C.TCNT1.
 0090 4f435231 41004f43 52314200 49435231  OCR1A.OCR1B.ICR1
 00a0 00475443 43520054 494d534b 32005449  .GTCCR.TIMSK2.TI
 00b0 46523200 54434352 32410054 43435232  FR2.TCCR2A.TCCR2
 00c0 42005443 4e543200 4f435232 42004f43  B.TCNT2.OCR2B.OC
 00d0 52324100 41535352 00475443 43520041  R2A.ASSR.GTCCR.A
 00e0 444d5558 00414443 00414443 53524100  DMUX.ADC.ADCSRA.
 00f0 41444353 52420044 49445230 00414353  ADCSRB.DIDR0.ACS
 0100 52004449 44523100 504f5254 42004444  R.DIDR1.PORTB.DD
 0110 52420050 494e4200 504f5254 43004444  RB.PINB.PORTC.DD
 0120 52430050 494e4300 504f5254 44004444  RC.PINC.PORTD.DD
 0130 52440050 494e4400 4f435230 42004f43  RD.PIND.OCR0B.OC
 0140 52304100 54434e54 30005443 43523042  R0A.TCNT0.TCCR0B
 0150 00544343 52304100 54494d53 4b300054  .TCCR0A.TIMSK0.T
 0160 49465230 00475443 43520045 49435241  IFR0.GTCCR.EICRA
 0170 0045494d 534b0045 49465200 50434943  .EIMSK.EIFR.PCIC
 0180 52005043 4d534b32 0050434d 534b3100  R.PCMSK2.PCMSK1.
 0190 50434d53 4b300050 43494652 00535044  PCMSK0.PCIFR.SPD
 01a0 52005350 53520053 50435200 57445443  R.SPSR.SPCR.WDTC
 01b0 53520050 5252004f 53434341 4c00434c  SR.PRR.OSCCAL.CL
 01c0 4b505200 53524547 00535000 53504d43  KPR.SREG.SP.SPMC
 01d0 5352004d 43554352 004d4355 53520053  SR.MCUCR.MCUSR.S
 01e0 4d435200 4750494f 52320047 50494f52  MCR.GPIOR2.GPIOR
 01f0 31004750 494f5230 00454541 52004545  1.GPIOR0.EEAR.EE
 0200 44520045 45435200                    DR.EECR.        

Disassembly of section .text:

00000000 <__vectors>:
       0:	0c 94 d9 00 	jmp	0x1b2	; 0x1b2 <__ctors_end>
       4:	0c 94 f6 00 	jmp	0x1ec	; 0x1ec <__bad_interrupt>
       8:	0c 94 f6 00 	jmp	0x1ec	; 0x1ec <__bad_interrupt>
       c:	0c 94 f6 00 	jmp	0x1ec	; 0x1ec <__bad_interrupt>
      10:	0c 94 f6 00 	jmp	0x1ec	; 0x1ec <__bad_interrupt>
      14:	0c 94 f6 00 	jmp	0x1ec	; 0x1ec <__bad_interrupt>
      18:	0c 94 f6 00 	jmp	0x1ec	; 0x1ec <__bad_interrupt>
      1c:	0c 94 f6 00 	jmp	0x1ec	; 0x1ec <__bad_interrupt>
      20:	0c 94 f6 00 	jmp	0x1ec	; 0x1ec <__bad_interrupt>
      24:	0c 94 f6 00 	jmp	0x1ec	; 0x1ec <__bad_interrupt>
      28:	0c 94 f6 00 	jmp	0x1ec	; 0x1ec <__bad_interrupt>
      2c:	0c 94 f6 00 	jmp	0x1ec	; 0x1ec <__bad_interrupt>
      30:	0c 94 f6 00 	jmp	0x1ec	; 0x1ec <__bad_interrupt>
      34:	0c 94 f6 00 	jmp	0x1ec	; 0x1ec <__bad_interrupt>
      38:	0c 94 f6 00 	jmp	0x1ec	; 0x1ec <__bad_interrupt>
      3c:	0c 94 f6 00 	jmp	0x1ec	; 0x1ec <__bad_interrupt>
      40:	0c 94 f6 00 	jmp	0x1ec	; 0x1ec <__bad_interrupt>
      44:	0c 94 f6 00 	jmp	0x1ec	; 0x1ec <__bad_interrupt>
      48:	0c 94 f6 00 	jmp	0x1ec	; 0x1ec <__bad_interrupt>
      4c:	0c 94 f6 00 	jmp	0x1ec	; 0x1ec <__bad_interrupt>
      50:	0c 94 f6 00 	jmp	0x1ec	; 0x1ec <__bad_interrupt>
      54:	0c 94 f6 00 	jmp	0x1ec	; 0x1ec <__bad_interrupt>
      58:	0c 94 f6 00 	jmp	0x1ec	; 0x1ec <__bad_interrupt>
      5c:	0c 94 f6 00 	jmp	0x1ec	; 0x1ec <__bad_interrupt>
      60:	0c 94 f6 00 	jmp	0x1ec	; 0x1ec <__bad_interrupt>
      64:	0c 94 f6 00 	jmp	0x1ec	; 0x1ec <__bad_interrupt>

00000068 <__trampolines_end>:
      68:	45 52       	subi	r20, 0x25	; 37
      6a:	52 4f       	sbci	r21, 0xF2	; 242
      6c:	52 2c       	mov	r5, r2
      6e:	20 74       	andi	r18, 0x40	; 64
      70:	72 79       	andi	r23, 0x92	; 146
      72:	69 6e       	ori	r22, 0xE9	; 233
      74:	67 20       	and	r6, r7
      76:	74 6f       	ori	r23, 0xF4	; 244
      78:	20 77       	andi	r18, 0x70	; 112
      7a:	72 69       	ori	r23, 0x92	; 146
      7c:	74 65       	ori	r23, 0x54	; 84
      7e:	20 6f       	ori	r18, 0xF0	; 240
      80:	75 74       	andi	r23, 0x45	; 69
      82:	73 69       	ori	r23, 0x93	; 147
      84:	64 65       	ori	r22, 0x54	; 84
      86:	20 61       	ori	r18, 0x10	; 16
      88:	76 61       	ori	r23, 0x16	; 22
      8a:	69 6c       	ori	r22, 0xC9	; 201
      8c:	61 62       	ori	r22, 0x21	; 33
      8e:	6c 65       	ori	r22, 0x5C	; 92
      90:	20 45       	sbci	r18, 0x50	; 80
      92:	45 50       	subi	r20, 0x05	; 5
      94:	52 4f       	sbci	r21, 0xF2	; 242
      96:	4d 20       	and	r4, r13
      98:	73 70       	andi	r23, 0x03	; 3
      9a:	61 63       	ori	r22, 0x31	; 49
      9c:	65 3a       	cpi	r22, 0xA5	; 165
      9e:	20 30       	cpi	r18, 0x00	; 0
      a0:	78 25       	eor	r23, r8
      a2:	30 32       	cpi	r19, 0x20	; 32
      a4:	78 2d       	mov	r23, r8
      a6:	30 78       	andi	r19, 0x80	; 128
      a8:	25 30       	cpi	r18, 0x05	; 5
      aa:	32 78       	andi	r19, 0x82	; 130
      ac:	20 28       	or	r2, r0
      ae:	30 78       	andi	r19, 0x80	; 128
      b0:	30 30       	cpi	r19, 0x00	; 0
      b2:	2d 30       	cpi	r18, 0x0D	; 13
      b4:	78 38       	cpi	r23, 0x88	; 136
      b6:	30 20       	and	r3, r0
      b8:	76 61       	ori	r23, 0x16	; 22
      ba:	6c 69       	ori	r22, 0x9C	; 156
      bc:	64 29       	or	r22, r4
      be:	21 0a       	sbc	r2, r17
	...

000000c1 <__c.2367>:
      c1:	45 72 61 73 65 20 63 6f 6d 70 6c 65 74 65 0a 00     Erase complete..

000000d1 <__c.2362>:
      d1:	20 3e 20 45 72 61 73 69 6e 67 20 25 30 32 58 2d      > Erasing %02X-
      e1:	25 30 32 58 0a 00                                   %02X..

000000e7 <__c.2359>:
      e7:	45 72 61 73 69 6e 67 20 45 45 50 52 4f 4d 0a 00     Erasing EEPROM..

000000f7 <__c.2298>:
      f7:	4e 2f 41 20 25 30 32 58 0a 00                       N/A %02X..

00000101 <__c.2295>:
     101:	4d 52 20 44 41 54 41 2b 52 2c 20 4e 41 4b 0a 00     MR DATA+R, NAK..

00000111 <__c.2292>:
     111:	4d 52 20 44 41 54 41 2b 52 2c 20 41 43 4b 0a 00     MR DATA+R, ACK..

00000121 <__c.2289>:
     121:	4d 52 20 53 4c 41 2b 52 2c 20 4e 41 4b 0a 00        MR SLA+R, NAK..

00000130 <__c.2286>:
     130:	4d 52 20 53 4c 41 2b 52 2c 20 41 43 4b 0a 00        MR SLA+R, ACK..

0000013f <__c.2283>:
     13f:	4d 54 20 44 41 54 41 2b 57 2c 20 4e 41 4b 0a 00     MT DATA+W, NAK..

0000014f <__c.2280>:
     14f:	4d 54 20 44 41 54 41 2b 57 2c 20 41 43 4b 0a 00     MT DATA+W, ACK..

0000015f <__c.2277>:
     15f:	4d 54 20 53 4c 41 2b 57 2c 20 4e 41 4b 0a 00        MT SLA+W, NAK..

0000016e <__c.2274>:
     16e:	4d 54 20 53 4c 41 2b 57 2c 20 41 43 4b 0a 00        MT SLA+W, ACK..

0000017d <__c.2271>:
     17d:	4e 4f 41 52 42 2f 4e 41 4b 0a 00                    NOARB/NAK..

00000188 <__c.2268>:
     188:	52 45 53 54 41 52 54 0a 00                          RESTART..

00000191 <__c.2264>:
     191:	53 54 41 52 54 0a 00                                START..

00000198 <__c.2109>:
     198:	20 7c 20 25 73 20 7c 0a 00                           | %s |..

000001a1 <__c.2105>:
     1a1:	25 30 32 58 20 00                                   %02X .

000001a7 <__c.2103>:
     1a7:	25 30 34 58 20 20 7c 20 20 00 00                    %04X  |  ..

000001b2 <__ctors_end>:
     1b2:	11 24       	eor	r1, r1
     1b4:	1f be       	out	0x3f, r1	; 63
     1b6:	cf ef       	ldi	r28, 0xFF	; 255
     1b8:	d8 e0       	ldi	r29, 0x08	; 8
     1ba:	de bf       	out	0x3e, r29	; 62
     1bc:	cd bf       	out	0x3d, r28	; 61

000001be <__do_copy_data>:
     1be:	11 e0       	ldi	r17, 0x01	; 1
     1c0:	a0 e0       	ldi	r26, 0x00	; 0
     1c2:	b1 e0       	ldi	r27, 0x01	; 1
     1c4:	ee e3       	ldi	r30, 0x3E	; 62
     1c6:	f4 e1       	ldi	r31, 0x14	; 20
     1c8:	02 c0       	rjmp	.+4      	; 0x1ce <__do_copy_data+0x10>
     1ca:	05 90       	lpm	r0, Z+
     1cc:	0d 92       	st	X+, r0
     1ce:	a4 34       	cpi	r26, 0x44	; 68
     1d0:	b1 07       	cpc	r27, r17
     1d2:	d9 f7       	brne	.-10     	; 0x1ca <__do_copy_data+0xc>

000001d4 <__do_clear_bss>:
     1d4:	21 e0       	ldi	r18, 0x01	; 1
     1d6:	a4 e4       	ldi	r26, 0x44	; 68
     1d8:	b1 e0       	ldi	r27, 0x01	; 1
     1da:	01 c0       	rjmp	.+2      	; 0x1de <.do_clear_bss_start>

000001dc <.do_clear_bss_loop>:
     1dc:	1d 92       	st	X+, r1

000001de <.do_clear_bss_start>:
     1de:	ad 34       	cpi	r26, 0x4D	; 77
     1e0:	b2 07       	cpc	r27, r18
     1e2:	e1 f7       	brne	.-8      	; 0x1dc <.do_clear_bss_loop>
     1e4:	0e 94 37 05 	call	0xa6e	; 0xa6e <main>
     1e8:	0c 94 1d 0a 	jmp	0x143a	; 0x143a <_exit>

000001ec <__bad_interrupt>:
     1ec:	0c 94 00 00 	jmp	0	; 0x0 <__vectors>

000001f0 <uart_putchar>:
     1f0:	cf 93       	push	r28
     1f2:	c8 2f       	mov	r28, r24
     1f4:	8a 30       	cpi	r24, 0x0A	; 10
     1f6:	29 f4       	brne	.+10     	; 0x202 <uart_putchar+0x12>
     1f8:	60 e0       	ldi	r22, 0x00	; 0
     1fa:	70 e0       	ldi	r23, 0x00	; 0
     1fc:	8d e0       	ldi	r24, 0x0D	; 13
     1fe:	0e 94 f8 00 	call	0x1f0	; 0x1f0 <uart_putchar>
     202:	80 91 c0 00 	lds	r24, 0x00C0	; 0x8000c0 <__TEXT_REGION_LENGTH__+0x7e00c0>
     206:	85 ff       	sbrs	r24, 5
     208:	fc cf       	rjmp	.-8      	; 0x202 <uart_putchar+0x12>
     20a:	c0 93 c6 00 	sts	0x00C6, r28	; 0x8000c6 <__TEXT_REGION_LENGTH__+0x7e00c6>
     20e:	80 e0       	ldi	r24, 0x00	; 0
     210:	90 e0       	ldi	r25, 0x00	; 0
     212:	cf 91       	pop	r28
     214:	08 95       	ret

00000216 <uart_init>:
     216:	10 92 c5 00 	sts	0x00C5, r1	; 0x8000c5 <__TEXT_REGION_LENGTH__+0x7e00c5>
     21a:	89 e1       	ldi	r24, 0x19	; 25
     21c:	80 93 c4 00 	sts	0x00C4, r24	; 0x8000c4 <__TEXT_REGION_LENGTH__+0x7e00c4>
     220:	10 92 c0 00 	sts	0x00C0, r1	; 0x8000c0 <__TEXT_REGION_LENGTH__+0x7e00c0>
     224:	88 e1       	ldi	r24, 0x18	; 24
     226:	80 93 c1 00 	sts	0x00C1, r24	; 0x8000c1 <__TEXT_REGION_LENGTH__+0x7e00c1>
     22a:	86 e0       	ldi	r24, 0x06	; 6
     22c:	80 93 c2 00 	sts	0x00C2, r24	; 0x8000c2 <__TEXT_REGION_LENGTH__+0x7e00c2>
     230:	80 e0       	ldi	r24, 0x00	; 0
     232:	91 e0       	ldi	r25, 0x01	; 1
     234:	90 93 4a 01 	sts	0x014A, r25	; 0x80014a <__iob+0x3>
     238:	80 93 49 01 	sts	0x0149, r24	; 0x800149 <__iob+0x2>
     23c:	08 95       	ret

0000023e <uart_getchar>:
     23e:	80 91 c0 00 	lds	r24, 0x00C0	; 0x8000c0 <__TEXT_REGION_LENGTH__+0x7e00c0>
     242:	87 ff       	sbrs	r24, 7
     244:	fc cf       	rjmp	.-8      	; 0x23e <uart_getchar>
     246:	80 91 c6 00 	lds	r24, 0x00C6	; 0x8000c6 <__TEXT_REGION_LENGTH__+0x7e00c6>
     24a:	08 95       	ret

0000024c <gpio_init>:
     24c:	08 95       	ret

0000024e <adc_init>:
     24e:	ec e7       	ldi	r30, 0x7C	; 124
     250:	f0 e0       	ldi	r31, 0x00	; 0
     252:	80 e6       	ldi	r24, 0x60	; 96
     254:	80 83       	st	Z, r24
     256:	80 81       	ld	r24, Z
     258:	80 83       	st	Z, r24
     25a:	8b e8       	ldi	r24, 0x8B	; 139
     25c:	80 93 7a 00 	sts	0x007A, r24	; 0x80007a <__TEXT_REGION_LENGTH__+0x7e007a>
     260:	08 95       	ret

00000262 <set_adc_value>:
     262:	80 93 44 01 	sts	0x0144, r24	; 0x800144 <__data_end>
     266:	08 95       	ret

00000268 <get_adc_value>:
     268:	80 91 44 01 	lds	r24, 0x0144	; 0x800144 <__data_end>
     26c:	08 95       	ret

0000026e <timer_init>:
     26e:	08 95       	ret

00000270 <i2c_init>:
     270:	89 e4       	ldi	r24, 0x49	; 73
     272:	80 93 b8 00 	sts	0x00B8, r24	; 0x8000b8 <__TEXT_REGION_LENGTH__+0x7e00b8>
     276:	08 95       	ret

00000278 <i2c_meaningful_status>:
     278:	80 33       	cpi	r24, 0x30	; 48
     27a:	79 f1       	breq	.+94     	; 0x2da <i2c_meaningful_status+0x62>
     27c:	88 f4       	brcc	.+34     	; 0x2a0 <i2c_meaningful_status+0x28>
     27e:	88 31       	cpi	r24, 0x18	; 24
     280:	31 f1       	breq	.+76     	; 0x2ce <i2c_meaningful_status+0x56>
     282:	38 f4       	brcc	.+14     	; 0x292 <i2c_meaningful_status+0x1a>
     284:	88 30       	cpi	r24, 0x08	; 8
     286:	e9 f0       	breq	.+58     	; 0x2c2 <i2c_meaningful_status+0x4a>
     288:	80 31       	cpi	r24, 0x10	; 16
     28a:	b1 f5       	brne	.+108    	; 0x2f8 <i2c_meaningful_status+0x80>
     28c:	88 e8       	ldi	r24, 0x88	; 136
     28e:	91 e0       	ldi	r25, 0x01	; 1
     290:	2c c0       	rjmp	.+88     	; 0x2ea <i2c_meaningful_status+0x72>
     292:	80 32       	cpi	r24, 0x20	; 32
     294:	f9 f0       	breq	.+62     	; 0x2d4 <i2c_meaningful_status+0x5c>
     296:	88 32       	cpi	r24, 0x28	; 40
     298:	79 f5       	brne	.+94     	; 0x2f8 <i2c_meaningful_status+0x80>
     29a:	8f e4       	ldi	r24, 0x4F	; 79
     29c:	91 e0       	ldi	r25, 0x01	; 1
     29e:	25 c0       	rjmp	.+74     	; 0x2ea <i2c_meaningful_status+0x72>
     2a0:	88 34       	cpi	r24, 0x48	; 72
     2a2:	f1 f0       	breq	.+60     	; 0x2e0 <i2c_meaningful_status+0x68>
     2a4:	38 f4       	brcc	.+14     	; 0x2b4 <i2c_meaningful_status+0x3c>
     2a6:	88 33       	cpi	r24, 0x38	; 56
     2a8:	79 f0       	breq	.+30     	; 0x2c8 <i2c_meaningful_status+0x50>
     2aa:	80 34       	cpi	r24, 0x40	; 64
     2ac:	29 f5       	brne	.+74     	; 0x2f8 <i2c_meaningful_status+0x80>
     2ae:	80 e3       	ldi	r24, 0x30	; 48
     2b0:	91 e0       	ldi	r25, 0x01	; 1
     2b2:	1b c0       	rjmp	.+54     	; 0x2ea <i2c_meaningful_status+0x72>
     2b4:	80 35       	cpi	r24, 0x50	; 80
     2b6:	b9 f0       	breq	.+46     	; 0x2e6 <i2c_meaningful_status+0x6e>
     2b8:	88 35       	cpi	r24, 0x58	; 88
     2ba:	f1 f4       	brne	.+60     	; 0x2f8 <i2c_meaningful_status+0x80>
     2bc:	81 e0       	ldi	r24, 0x01	; 1
     2be:	91 e0       	ldi	r25, 0x01	; 1
     2c0:	14 c0       	rjmp	.+40     	; 0x2ea <i2c_meaningful_status+0x72>
     2c2:	81 e9       	ldi	r24, 0x91	; 145
     2c4:	91 e0       	ldi	r25, 0x01	; 1
     2c6:	11 c0       	rjmp	.+34     	; 0x2ea <i2c_meaningful_status+0x72>
     2c8:	8d e7       	ldi	r24, 0x7D	; 125
     2ca:	91 e0       	ldi	r25, 0x01	; 1
     2cc:	0e c0       	rjmp	.+28     	; 0x2ea <i2c_meaningful_status+0x72>
     2ce:	8e e6       	ldi	r24, 0x6E	; 110
     2d0:	91 e0       	ldi	r25, 0x01	; 1
     2d2:	0b c0       	rjmp	.+22     	; 0x2ea <i2c_meaningful_status+0x72>
     2d4:	8f e5       	ldi	r24, 0x5F	; 95
     2d6:	91 e0       	ldi	r25, 0x01	; 1
     2d8:	08 c0       	rjmp	.+16     	; 0x2ea <i2c_meaningful_status+0x72>
     2da:	8f e3       	ldi	r24, 0x3F	; 63
     2dc:	91 e0       	ldi	r25, 0x01	; 1
     2de:	05 c0       	rjmp	.+10     	; 0x2ea <i2c_meaningful_status+0x72>
     2e0:	81 e2       	ldi	r24, 0x21	; 33
     2e2:	91 e0       	ldi	r25, 0x01	; 1
     2e4:	02 c0       	rjmp	.+4      	; 0x2ea <i2c_meaningful_status+0x72>
     2e6:	81 e1       	ldi	r24, 0x11	; 17
     2e8:	91 e0       	ldi	r25, 0x01	; 1
     2ea:	9f 93       	push	r25
     2ec:	8f 93       	push	r24
     2ee:	0e 94 2f 07 	call	0xe5e	; 0xe5e <printf_P>
     2f2:	0f 90       	pop	r0
     2f4:	0f 90       	pop	r0
     2f6:	08 95       	ret
     2f8:	1f 92       	push	r1
     2fa:	8f 93       	push	r24
     2fc:	87 ef       	ldi	r24, 0xF7	; 247
     2fe:	90 e0       	ldi	r25, 0x00	; 0
     300:	9f 93       	push	r25
     302:	8f 93       	push	r24
     304:	0e 94 2f 07 	call	0xe5e	; 0xe5e <printf_P>
     308:	0f 90       	pop	r0
     30a:	0f 90       	pop	r0
     30c:	0f 90       	pop	r0
     30e:	0f 90       	pop	r0
     310:	08 95       	ret

00000312 <i2c_start>:
     312:	84 ea       	ldi	r24, 0xA4	; 164
     314:	80 93 bc 00 	sts	0x00BC, r24	; 0x8000bc <__TEXT_REGION_LENGTH__+0x7e00bc>
     318:	80 91 bc 00 	lds	r24, 0x00BC	; 0x8000bc <__TEXT_REGION_LENGTH__+0x7e00bc>
     31c:	87 ff       	sbrs	r24, 7
     31e:	fc cf       	rjmp	.-8      	; 0x318 <i2c_start+0x6>
     320:	08 95       	ret

00000322 <i2c_stop>:
     322:	84 e9       	ldi	r24, 0x94	; 148
     324:	80 93 bc 00 	sts	0x00BC, r24	; 0x8000bc <__TEXT_REGION_LENGTH__+0x7e00bc>
     328:	87 ec       	ldi	r24, 0xC7	; 199
     32a:	90 e0       	ldi	r25, 0x00	; 0
     32c:	01 97       	sbiw	r24, 0x01	; 1
     32e:	f1 f7       	brne	.-4      	; 0x32c <i2c_stop+0xa>
     330:	00 c0       	rjmp	.+0      	; 0x332 <i2c_stop+0x10>
     332:	00 00       	nop
     334:	08 95       	ret

00000336 <i2c_get_status>:
     336:	80 91 b9 00 	lds	r24, 0x00B9	; 0x8000b9 <__TEXT_REGION_LENGTH__+0x7e00b9>
     33a:	88 7f       	andi	r24, 0xF8	; 248
     33c:	08 95       	ret

0000033e <i2c_emit_addr>:
     33e:	86 2b       	or	r24, r22
     340:	80 93 bb 00 	sts	0x00BB, r24	; 0x8000bb <__TEXT_REGION_LENGTH__+0x7e00bb>
     344:	84 e8       	ldi	r24, 0x84	; 132
     346:	80 93 bc 00 	sts	0x00BC, r24	; 0x8000bc <__TEXT_REGION_LENGTH__+0x7e00bc>
     34a:	80 91 bc 00 	lds	r24, 0x00BC	; 0x8000bc <__TEXT_REGION_LENGTH__+0x7e00bc>
     34e:	87 ff       	sbrs	r24, 7
     350:	fc cf       	rjmp	.-8      	; 0x34a <i2c_emit_addr+0xc>
     352:	08 95       	ret

00000354 <i2c_emit_byte>:
     354:	80 93 bb 00 	sts	0x00BB, r24	; 0x8000bb <__TEXT_REGION_LENGTH__+0x7e00bb>
     358:	84 e8       	ldi	r24, 0x84	; 132
     35a:	80 93 bc 00 	sts	0x00BC, r24	; 0x8000bc <__TEXT_REGION_LENGTH__+0x7e00bc>
     35e:	80 91 bc 00 	lds	r24, 0x00BC	; 0x8000bc <__TEXT_REGION_LENGTH__+0x7e00bc>
     362:	87 ff       	sbrs	r24, 7
     364:	fc cf       	rjmp	.-8      	; 0x35e <i2c_emit_byte+0xa>
     366:	08 95       	ret

00000368 <eeprom_wait_until_write_complete>:
     368:	0e 94 89 01 	call	0x312	; 0x312 <i2c_start>
     36c:	60 e0       	ldi	r22, 0x00	; 0
     36e:	80 ea       	ldi	r24, 0xA0	; 160
     370:	0e 94 9f 01 	call	0x33e	; 0x33e <i2c_emit_addr>
     374:	80 91 b9 00 	lds	r24, 0x00B9	; 0x8000b9 <__TEXT_REGION_LENGTH__+0x7e00b9>
     378:	88 7f       	andi	r24, 0xF8	; 248
     37a:	88 31       	cpi	r24, 0x18	; 24
     37c:	a9 f7       	brne	.-22     	; 0x368 <eeprom_wait_until_write_complete>
     37e:	08 95       	ret

00000380 <eeprom_read_byte>:
     380:	cf 93       	push	r28
     382:	c8 2f       	mov	r28, r24
     384:	0e 94 89 01 	call	0x312	; 0x312 <i2c_start>
     388:	60 e0       	ldi	r22, 0x00	; 0
     38a:	80 ea       	ldi	r24, 0xA0	; 160
     38c:	0e 94 9f 01 	call	0x33e	; 0x33e <i2c_emit_addr>
     390:	8c 2f       	mov	r24, r28
     392:	0e 94 aa 01 	call	0x354	; 0x354 <i2c_emit_byte>
     396:	0e 94 89 01 	call	0x312	; 0x312 <i2c_start>
     39a:	61 e0       	ldi	r22, 0x01	; 1
     39c:	80 ea       	ldi	r24, 0xA0	; 160
     39e:	0e 94 9f 01 	call	0x33e	; 0x33e <i2c_emit_addr>
     3a2:	84 e8       	ldi	r24, 0x84	; 132
     3a4:	80 93 bc 00 	sts	0x00BC, r24	; 0x8000bc <__TEXT_REGION_LENGTH__+0x7e00bc>
     3a8:	80 91 bc 00 	lds	r24, 0x00BC	; 0x8000bc <__TEXT_REGION_LENGTH__+0x7e00bc>
     3ac:	87 ff       	sbrs	r24, 7
     3ae:	fc cf       	rjmp	.-8      	; 0x3a8 <eeprom_read_byte+0x28>
     3b0:	c0 91 bb 00 	lds	r28, 0x00BB	; 0x8000bb <__TEXT_REGION_LENGTH__+0x7e00bb>
     3b4:	0e 94 91 01 	call	0x322	; 0x322 <i2c_stop>
     3b8:	8c 2f       	mov	r24, r28
     3ba:	cf 91       	pop	r28
     3bc:	08 95       	ret

000003be <eeprom_write_byte>:
     3be:	cf 93       	push	r28
     3c0:	df 93       	push	r29
     3c2:	d8 2f       	mov	r29, r24
     3c4:	c6 2f       	mov	r28, r22
     3c6:	0e 94 89 01 	call	0x312	; 0x312 <i2c_start>
     3ca:	60 e0       	ldi	r22, 0x00	; 0
     3cc:	80 ea       	ldi	r24, 0xA0	; 160
     3ce:	0e 94 9f 01 	call	0x33e	; 0x33e <i2c_emit_addr>
     3d2:	8d 2f       	mov	r24, r29
     3d4:	0e 94 aa 01 	call	0x354	; 0x354 <i2c_emit_byte>
     3d8:	8c 2f       	mov	r24, r28
     3da:	0e 94 aa 01 	call	0x354	; 0x354 <i2c_emit_byte>
     3de:	0e 94 91 01 	call	0x322	; 0x322 <i2c_stop>
     3e2:	df 91       	pop	r29
     3e4:	cf 91       	pop	r28
     3e6:	0c 94 b4 01 	jmp	0x368	; 0x368 <eeprom_wait_until_write_complete>

000003ea <eeprom_write_page>:
     3ea:	ef 92       	push	r14
     3ec:	ff 92       	push	r15
     3ee:	0f 93       	push	r16
     3f0:	1f 93       	push	r17
     3f2:	cf 93       	push	r28
     3f4:	df 93       	push	r29
     3f6:	7c 01       	movw	r14, r24
     3f8:	c6 2f       	mov	r28, r22
     3fa:	8a 01       	movw	r16, r20
     3fc:	0e 94 89 01 	call	0x312	; 0x312 <i2c_start>
     400:	60 e0       	ldi	r22, 0x00	; 0
     402:	80 ea       	ldi	r24, 0xA0	; 160
     404:	0e 94 9f 01 	call	0x33e	; 0x33e <i2c_emit_addr>
     408:	8c 2f       	mov	r24, r28
     40a:	0e 94 aa 01 	call	0x354	; 0x354 <i2c_emit_byte>
     40e:	e7 01       	movw	r28, r14
     410:	0e 0d       	add	r16, r14
     412:	1f 1d       	adc	r17, r15
     414:	c0 17       	cp	r28, r16
     416:	d1 07       	cpc	r29, r17
     418:	21 f0       	breq	.+8      	; 0x422 <__LOCK_REGION_LENGTH__+0x22>
     41a:	89 91       	ld	r24, Y+
     41c:	0e 94 aa 01 	call	0x354	; 0x354 <i2c_emit_byte>
     420:	f9 cf       	rjmp	.-14     	; 0x414 <__LOCK_REGION_LENGTH__+0x14>
     422:	0e 94 91 01 	call	0x322	; 0x322 <i2c_stop>
     426:	df 91       	pop	r29
     428:	cf 91       	pop	r28
     42a:	1f 91       	pop	r17
     42c:	0f 91       	pop	r16
     42e:	ff 90       	pop	r15
     430:	ef 90       	pop	r14
     432:	0c 94 b4 01 	jmp	0x368	; 0x368 <eeprom_wait_until_write_complete>

00000436 <eeprom_sequential_read>:
     436:	ff 92       	push	r15
     438:	0f 93       	push	r16
     43a:	1f 93       	push	r17
     43c:	cf 93       	push	r28
     43e:	df 93       	push	r29
     440:	18 2f       	mov	r17, r24
     442:	09 2f       	mov	r16, r25
     444:	f6 2e       	mov	r15, r22
     446:	ea 01       	movw	r28, r20
     448:	0e 94 89 01 	call	0x312	; 0x312 <i2c_start>
     44c:	60 e0       	ldi	r22, 0x00	; 0
     44e:	80 ea       	ldi	r24, 0xA0	; 160
     450:	0e 94 9f 01 	call	0x33e	; 0x33e <i2c_emit_addr>
     454:	8f 2d       	mov	r24, r15
     456:	0e 94 aa 01 	call	0x354	; 0x354 <i2c_emit_byte>
     45a:	0e 94 89 01 	call	0x312	; 0x312 <i2c_start>
     45e:	61 e0       	ldi	r22, 0x01	; 1
     460:	80 ea       	ldi	r24, 0xA0	; 160
     462:	0e 94 9f 01 	call	0x33e	; 0x33e <i2c_emit_addr>
     466:	21 2f       	mov	r18, r17
     468:	e1 2f       	mov	r30, r17
     46a:	f0 2f       	mov	r31, r16
     46c:	34 ec       	ldi	r19, 0xC4	; 196
     46e:	21 97       	sbiw	r28, 0x01	; 1
     470:	8e 2f       	mov	r24, r30
     472:	82 1b       	sub	r24, r18
     474:	df 01       	movw	r26, r30
     476:	30 93 bc 00 	sts	0x00BC, r19	; 0x8000bc <__TEXT_REGION_LENGTH__+0x7e00bc>
     47a:	90 91 bc 00 	lds	r25, 0x00BC	; 0x8000bc <__TEXT_REGION_LENGTH__+0x7e00bc>
     47e:	97 ff       	sbrs	r25, 7
     480:	fc cf       	rjmp	.-8      	; 0x47a <eeprom_sequential_read+0x44>
     482:	90 91 bb 00 	lds	r25, 0x00BB	; 0x8000bb <__TEXT_REGION_LENGTH__+0x7e00bb>
     486:	91 93       	st	Z+, r25
     488:	90 e0       	ldi	r25, 0x00	; 0
     48a:	8c 17       	cp	r24, r28
     48c:	9d 07       	cpc	r25, r29
     48e:	80 f3       	brcs	.-32     	; 0x470 <eeprom_sequential_read+0x3a>
     490:	84 e8       	ldi	r24, 0x84	; 132
     492:	80 93 bc 00 	sts	0x00BC, r24	; 0x8000bc <__TEXT_REGION_LENGTH__+0x7e00bc>
     496:	80 91 bc 00 	lds	r24, 0x00BC	; 0x8000bc <__TEXT_REGION_LENGTH__+0x7e00bc>
     49a:	87 ff       	sbrs	r24, 7
     49c:	fc cf       	rjmp	.-8      	; 0x496 <eeprom_sequential_read+0x60>
     49e:	80 91 bb 00 	lds	r24, 0x00BB	; 0x8000bb <__TEXT_REGION_LENGTH__+0x7e00bb>
     4a2:	11 96       	adiw	r26, 0x01	; 1
     4a4:	8c 93       	st	X, r24
     4a6:	df 91       	pop	r29
     4a8:	cf 91       	pop	r28
     4aa:	1f 91       	pop	r17
     4ac:	0f 91       	pop	r16
     4ae:	ff 90       	pop	r15
     4b0:	0c 94 91 01 	jmp	0x322	; 0x322 <i2c_stop>

000004b4 <eeprom_erase_memory>:
     4b4:	ef 92       	push	r14
     4b6:	ff 92       	push	r15
     4b8:	0f 93       	push	r16
     4ba:	1f 93       	push	r17
     4bc:	cf 93       	push	r28
     4be:	df 93       	push	r29
     4c0:	cd b7       	in	r28, 0x3d	; 61
     4c2:	de b7       	in	r29, 0x3e	; 62
     4c4:	28 97       	sbiw	r28, 0x08	; 8
     4c6:	0f b6       	in	r0, 0x3f	; 63
     4c8:	f8 94       	cli
     4ca:	de bf       	out	0x3e, r29	; 62
     4cc:	0f be       	out	0x3f, r0	; 63
     4ce:	cd bf       	out	0x3d, r28	; 61
     4d0:	88 e0       	ldi	r24, 0x08	; 8
     4d2:	ee e0       	ldi	r30, 0x0E	; 14
     4d4:	f1 e0       	ldi	r31, 0x01	; 1
     4d6:	de 01       	movw	r26, r28
     4d8:	11 96       	adiw	r26, 0x01	; 1
     4da:	01 90       	ld	r0, Z+
     4dc:	0d 92       	st	X+, r0
     4de:	8a 95       	dec	r24
     4e0:	e1 f7       	brne	.-8      	; 0x4da <eeprom_erase_memory+0x26>
     4e2:	87 ee       	ldi	r24, 0xE7	; 231
     4e4:	90 e0       	ldi	r25, 0x00	; 0
     4e6:	9f 93       	push	r25
     4e8:	8f 93       	push	r24
     4ea:	0e 94 2f 07 	call	0xe5e	; 0xe5e <printf_P>
     4ee:	0f 90       	pop	r0
     4f0:	0f 90       	pop	r0
     4f2:	00 e0       	ldi	r16, 0x00	; 0
     4f4:	10 e0       	ldi	r17, 0x00	; 0
     4f6:	81 ed       	ldi	r24, 0xD1	; 209
     4f8:	e8 2e       	mov	r14, r24
     4fa:	80 e0       	ldi	r24, 0x00	; 0
     4fc:	f8 2e       	mov	r15, r24
     4fe:	c8 01       	movw	r24, r16
     500:	07 96       	adiw	r24, 0x07	; 7
     502:	9f 93       	push	r25
     504:	8f 93       	push	r24
     506:	1f 93       	push	r17
     508:	0f 93       	push	r16
     50a:	ff 92       	push	r15
     50c:	ef 92       	push	r14
     50e:	0e 94 2f 07 	call	0xe5e	; 0xe5e <printf_P>
     512:	48 e0       	ldi	r20, 0x08	; 8
     514:	50 e0       	ldi	r21, 0x00	; 0
     516:	60 2f       	mov	r22, r16
     518:	ce 01       	movw	r24, r28
     51a:	01 96       	adiw	r24, 0x01	; 1
     51c:	0e 94 f5 01 	call	0x3ea	; 0x3ea <eeprom_write_page>
     520:	08 5f       	subi	r16, 0xF8	; 248
     522:	1f 4f       	sbci	r17, 0xFF	; 255
     524:	0f 90       	pop	r0
     526:	0f 90       	pop	r0
     528:	0f 90       	pop	r0
     52a:	0f 90       	pop	r0
     52c:	0f 90       	pop	r0
     52e:	0f 90       	pop	r0
     530:	00 38       	cpi	r16, 0x80	; 128
     532:	11 05       	cpc	r17, r1
     534:	21 f7       	brne	.-56     	; 0x4fe <eeprom_erase_memory+0x4a>
     536:	81 ec       	ldi	r24, 0xC1	; 193
     538:	90 e0       	ldi	r25, 0x00	; 0
     53a:	9f 93       	push	r25
     53c:	8f 93       	push	r24
     53e:	0e 94 2f 07 	call	0xe5e	; 0xe5e <printf_P>
     542:	0f 90       	pop	r0
     544:	0f 90       	pop	r0
     546:	28 96       	adiw	r28, 0x08	; 8
     548:	0f b6       	in	r0, 0x3f	; 63
     54a:	f8 94       	cli
     54c:	de bf       	out	0x3e, r29	; 62
     54e:	0f be       	out	0x3f, r0	; 63
     550:	cd bf       	out	0x3d, r28	; 61
     552:	df 91       	pop	r29
     554:	cf 91       	pop	r28
     556:	1f 91       	pop	r17
     558:	0f 91       	pop	r16
     55a:	ff 90       	pop	r15
     55c:	ef 90       	pop	r14
     55e:	08 95       	ret

00000560 <eeprom_write_buffer>:
     560:	9f 92       	push	r9
     562:	af 92       	push	r10
     564:	bf 92       	push	r11
     566:	cf 92       	push	r12
     568:	df 92       	push	r13
     56a:	ef 92       	push	r14
     56c:	ff 92       	push	r15
     56e:	0f 93       	push	r16
     570:	1f 93       	push	r17
     572:	cf 93       	push	r28
     574:	df 93       	push	r29
     576:	5c 01       	movw	r10, r24
     578:	96 2e       	mov	r9, r22
     57a:	8a 01       	movw	r16, r20
     57c:	7a 01       	movw	r14, r20
     57e:	e6 0e       	add	r14, r22
     580:	f1 1c       	adc	r15, r1
     582:	80 e8       	ldi	r24, 0x80	; 128
     584:	e8 16       	cp	r14, r24
     586:	f1 04       	cpc	r15, r1
     588:	20 f4       	brcc	.+8      	; 0x592 <eeprom_write_buffer+0x32>
     58a:	88 e0       	ldi	r24, 0x08	; 8
     58c:	c8 2e       	mov	r12, r24
     58e:	d1 2c       	mov	r13, r1
     590:	25 c0       	rjmp	.+74     	; 0x5dc <eeprom_write_buffer+0x7c>
     592:	ff 92       	push	r15
     594:	ef 92       	push	r14
     596:	1f 92       	push	r1
     598:	6f 93       	push	r22
     59a:	88 e6       	ldi	r24, 0x68	; 104
     59c:	90 e0       	ldi	r25, 0x00	; 0
     59e:	9f 93       	push	r25
     5a0:	8f 93       	push	r24
     5a2:	0e 94 2f 07 	call	0xe5e	; 0xe5e <printf_P>
     5a6:	0f 90       	pop	r0
     5a8:	0f 90       	pop	r0
     5aa:	0f 90       	pop	r0
     5ac:	0f 90       	pop	r0
     5ae:	0f 90       	pop	r0
     5b0:	0f 90       	pop	r0
     5b2:	1d c0       	rjmp	.+58     	; 0x5ee <eeprom_write_buffer+0x8e>
     5b4:	89 2d       	mov	r24, r9
     5b6:	87 70       	andi	r24, 0x07	; 7
     5b8:	b9 f0       	breq	.+46     	; 0x5e8 <eeprom_write_buffer+0x88>
     5ba:	e6 01       	movw	r28, r12
     5bc:	c8 1b       	sub	r28, r24
     5be:	d1 09       	sbc	r29, r1
     5c0:	0c 17       	cp	r16, r28
     5c2:	1d 07       	cpc	r17, r29
     5c4:	08 f4       	brcc	.+2      	; 0x5c8 <eeprom_write_buffer+0x68>
     5c6:	e8 01       	movw	r28, r16
     5c8:	ae 01       	movw	r20, r28
     5ca:	69 2d       	mov	r22, r9
     5cc:	c5 01       	movw	r24, r10
     5ce:	0e 94 f5 01 	call	0x3ea	; 0x3ea <eeprom_write_page>
     5d2:	9c 0e       	add	r9, r28
     5d4:	ac 0e       	add	r10, r28
     5d6:	bd 1e       	adc	r11, r29
     5d8:	0c 1b       	sub	r16, r28
     5da:	1d 0b       	sbc	r17, r29
     5dc:	89 2d       	mov	r24, r9
     5de:	90 e0       	ldi	r25, 0x00	; 0
     5e0:	8e 15       	cp	r24, r14
     5e2:	9f 05       	cpc	r25, r15
     5e4:	38 f3       	brcs	.-50     	; 0x5b4 <eeprom_write_buffer+0x54>
     5e6:	03 c0       	rjmp	.+6      	; 0x5ee <eeprom_write_buffer+0x8e>
     5e8:	c8 e0       	ldi	r28, 0x08	; 8
     5ea:	d0 e0       	ldi	r29, 0x00	; 0
     5ec:	e9 cf       	rjmp	.-46     	; 0x5c0 <eeprom_write_buffer+0x60>
     5ee:	df 91       	pop	r29
     5f0:	cf 91       	pop	r28
     5f2:	1f 91       	pop	r17
     5f4:	0f 91       	pop	r16
     5f6:	ff 90       	pop	r15
     5f8:	ef 90       	pop	r14
     5fa:	df 90       	pop	r13
     5fc:	cf 90       	pop	r12
     5fe:	bf 90       	pop	r11
     600:	af 90       	pop	r10
     602:	9f 90       	pop	r9
     604:	08 95       	ret

00000606 <hexdump>:
     606:	2f 92       	push	r2
     608:	3f 92       	push	r3
     60a:	4f 92       	push	r4
     60c:	5f 92       	push	r5
     60e:	6f 92       	push	r6
     610:	7f 92       	push	r7
     612:	8f 92       	push	r8
     614:	9f 92       	push	r9
     616:	af 92       	push	r10
     618:	bf 92       	push	r11
     61a:	cf 92       	push	r12
     61c:	df 92       	push	r13
     61e:	ef 92       	push	r14
     620:	ff 92       	push	r15
     622:	0f 93       	push	r16
     624:	1f 93       	push	r17
     626:	cf 93       	push	r28
     628:	df 93       	push	r29
     62a:	cd b7       	in	r28, 0x3d	; 61
     62c:	de b7       	in	r29, 0x3e	; 62
     62e:	29 97       	sbiw	r28, 0x09	; 9
     630:	0f b6       	in	r0, 0x3f	; 63
     632:	f8 94       	cli
     634:	de bf       	out	0x3e, r29	; 62
     636:	0f be       	out	0x3f, r0	; 63
     638:	cd bf       	out	0x3d, r28	; 61
     63a:	4c 01       	movw	r8, r24
     63c:	5b 01       	movw	r10, r22
     63e:	89 e0       	ldi	r24, 0x09	; 9
     640:	eb e3       	ldi	r30, 0x3B	; 59
     642:	f1 e0       	ldi	r31, 0x01	; 1
     644:	9e 01       	movw	r18, r28
     646:	2f 5f       	subi	r18, 0xFF	; 255
     648:	3f 4f       	sbci	r19, 0xFF	; 255
     64a:	79 01       	movw	r14, r18
     64c:	d9 01       	movw	r26, r18
     64e:	01 90       	ld	r0, Z+
     650:	0d 92       	st	X+, r0
     652:	8a 95       	dec	r24
     654:	e1 f7       	brne	.-8      	; 0x64e <hexdump+0x48>
     656:	00 e0       	ldi	r16, 0x00	; 0
     658:	10 e0       	ldi	r17, 0x00	; 0
     65a:	87 ea       	ldi	r24, 0xA7	; 167
     65c:	28 2e       	mov	r2, r24
     65e:	81 e0       	ldi	r24, 0x01	; 1
     660:	38 2e       	mov	r3, r24
     662:	91 ea       	ldi	r25, 0xA1	; 161
     664:	49 2e       	mov	r4, r25
     666:	91 e0       	ldi	r25, 0x01	; 1
     668:	59 2e       	mov	r5, r25
     66a:	28 e9       	ldi	r18, 0x98	; 152
     66c:	62 2e       	mov	r6, r18
     66e:	21 e0       	ldi	r18, 0x01	; 1
     670:	72 2e       	mov	r7, r18
     672:	1f 93       	push	r17
     674:	0f 93       	push	r16
     676:	3f 92       	push	r3
     678:	2f 92       	push	r2
     67a:	0e 94 2f 07 	call	0xe5e	; 0xe5e <printf_P>
     67e:	64 01       	movw	r12, r8
     680:	c0 0e       	add	r12, r16
     682:	d1 1e       	adc	r13, r17
     684:	0f 90       	pop	r0
     686:	0f 90       	pop	r0
     688:	0f 90       	pop	r0
     68a:	0f 90       	pop	r0
     68c:	d6 01       	movw	r26, r12
     68e:	8c 91       	ld	r24, X
     690:	1f 92       	push	r1
     692:	8f 93       	push	r24
     694:	5f 92       	push	r5
     696:	4f 92       	push	r4
     698:	0e 94 2f 07 	call	0xe5e	; 0xe5e <printf_P>
     69c:	f8 01       	movw	r30, r16
     69e:	e7 70       	andi	r30, 0x07	; 7
     6a0:	ff 27       	eor	r31, r31
     6a2:	d6 01       	movw	r26, r12
     6a4:	8d 91       	ld	r24, X+
     6a6:	6d 01       	movw	r12, r26
     6a8:	90 ee       	ldi	r25, 0xE0	; 224
     6aa:	98 0f       	add	r25, r24
     6ac:	0f 90       	pop	r0
     6ae:	0f 90       	pop	r0
     6b0:	0f 90       	pop	r0
     6b2:	0f 90       	pop	r0
     6b4:	9f 35       	cpi	r25, 0x5F	; 95
     6b6:	08 f0       	brcs	.+2      	; 0x6ba <hexdump+0xb4>
     6b8:	8e e2       	ldi	r24, 0x2E	; 46
     6ba:	ee 0d       	add	r30, r14
     6bc:	ff 1d       	adc	r31, r15
     6be:	80 83       	st	Z, r24
     6c0:	0f 5f       	subi	r16, 0xFF	; 255
     6c2:	1f 4f       	sbci	r17, 0xFF	; 255
     6c4:	c8 01       	movw	r24, r16
     6c6:	87 70       	andi	r24, 0x07	; 7
     6c8:	99 27       	eor	r25, r25
     6ca:	89 2b       	or	r24, r25
     6cc:	31 f5       	brne	.+76     	; 0x71a <hexdump+0x114>
     6ce:	ff 92       	push	r15
     6d0:	ef 92       	push	r14
     6d2:	7f 92       	push	r7
     6d4:	6f 92       	push	r6
     6d6:	0e 94 2f 07 	call	0xe5e	; 0xe5e <printf_P>
     6da:	0f 90       	pop	r0
     6dc:	0f 90       	pop	r0
     6de:	0f 90       	pop	r0
     6e0:	0f 90       	pop	r0
     6e2:	0a 15       	cp	r16, r10
     6e4:	1b 05       	cpc	r17, r11
     6e6:	28 f2       	brcs	.-118    	; 0x672 <hexdump+0x6c>
     6e8:	29 96       	adiw	r28, 0x09	; 9
     6ea:	0f b6       	in	r0, 0x3f	; 63
     6ec:	f8 94       	cli
     6ee:	de bf       	out	0x3e, r29	; 62
     6f0:	0f be       	out	0x3f, r0	; 63
     6f2:	cd bf       	out	0x3d, r28	; 61
     6f4:	df 91       	pop	r29
     6f6:	cf 91       	pop	r28
     6f8:	1f 91       	pop	r17
     6fa:	0f 91       	pop	r16
     6fc:	ff 90       	pop	r15
     6fe:	ef 90       	pop	r14
     700:	df 90       	pop	r13
     702:	cf 90       	pop	r12
     704:	bf 90       	pop	r11
     706:	af 90       	pop	r10
     708:	9f 90       	pop	r9
     70a:	8f 90       	pop	r8
     70c:	7f 90       	pop	r7
     70e:	6f 90       	pop	r6
     710:	5f 90       	pop	r5
     712:	4f 90       	pop	r4
     714:	3f 90       	pop	r3
     716:	2f 90       	pop	r2
     718:	08 95       	ret
     71a:	0a 15       	cp	r16, r10
     71c:	1b 05       	cpc	r17, r11
     71e:	08 f4       	brcc	.+2      	; 0x722 <hexdump+0x11c>
     720:	b5 cf       	rjmp	.-150    	; 0x68c <hexdump+0x86>
     722:	d5 cf       	rjmp	.-86     	; 0x6ce <hexdump+0xc8>

00000724 <DHT_Setup>:
     724:	2f ef       	ldi	r18, 0xFF	; 255
     726:	87 ea       	ldi	r24, 0xA7	; 167
     728:	91 e6       	ldi	r25, 0x61	; 97
     72a:	21 50       	subi	r18, 0x01	; 1
     72c:	80 40       	sbci	r24, 0x00	; 0
     72e:	90 40       	sbci	r25, 0x00	; 0
     730:	e1 f7       	brne	.-8      	; 0x72a <DHT_Setup+0x6>
     732:	00 c0       	rjmp	.+0      	; 0x734 <DHT_Setup+0x10>
     734:	00 00       	nop
     736:	10 92 46 01 	sts	0x0146, r1	; 0x800146 <__DHT_STATUS+0x1>
     73a:	10 92 45 01 	sts	0x0145, r1	; 0x800145 <__DHT_STATUS>
     73e:	08 95       	ret

00000740 <DHT_status>:
     740:	80 91 45 01 	lds	r24, 0x0145	; 0x800145 <__DHT_STATUS>
     744:	90 91 46 01 	lds	r25, 0x0146	; 0x800146 <__DHT_STATUS+0x1>
     748:	08 95       	ret

0000074a <DHT_ReadRaw>:
     74a:	8f 92       	push	r8
     74c:	9f 92       	push	r9
     74e:	bf 92       	push	r11
     750:	cf 92       	push	r12
     752:	df 92       	push	r13
     754:	ef 92       	push	r14
     756:	ff 92       	push	r15
     758:	0f 93       	push	r16
     75a:	1f 93       	push	r17
     75c:	cf 93       	push	r28
     75e:	df 93       	push	r29
     760:	00 d0       	rcall	.+0      	; 0x762 <DHT_ReadRaw+0x18>
     762:	00 d0       	rcall	.+0      	; 0x764 <DHT_ReadRaw+0x1a>
     764:	1f 92       	push	r1
     766:	cd b7       	in	r28, 0x3d	; 61
     768:	de b7       	in	r29, 0x3e	; 62
     76a:	fe 01       	movw	r30, r28
     76c:	31 96       	adiw	r30, 0x01	; 1
     76e:	25 e0       	ldi	r18, 0x05	; 5
     770:	df 01       	movw	r26, r30
     772:	1d 92       	st	X+, r1
     774:	2a 95       	dec	r18
     776:	e9 f7       	brne	.-6      	; 0x772 <DHT_ReadRaw+0x28>
     778:	10 92 46 01 	sts	0x0146, r1	; 0x800146 <__DHT_STATUS+0x1>
     77c:	10 92 45 01 	sts	0x0145, r1	; 0x800145 <__DHT_STATUS>
     780:	5e 98       	cbi	0x0b, 6	; 11
     782:	56 9a       	sbi	0x0a, 6	; 10
     784:	bf ef       	ldi	r27, 0xFF	; 255
     786:	20 e7       	ldi	r18, 0x70	; 112
     788:	32 e0       	ldi	r19, 0x02	; 2
     78a:	b1 50       	subi	r27, 0x01	; 1
     78c:	20 40       	sbci	r18, 0x00	; 0
     78e:	30 40       	sbci	r19, 0x00	; 0
     790:	e1 f7       	brne	.-8      	; 0x78a <DHT_ReadRaw+0x40>
     792:	00 c0       	rjmp	.+0      	; 0x794 <DHT_ReadRaw+0x4a>
     794:	00 00       	nop
     796:	5e 9a       	sbi	0x0b, 6	; 11
     798:	56 98       	cbi	0x0a, 6	; 10
     79a:	2f e1       	ldi	r18, 0x1F	; 31
     79c:	4e 9b       	sbis	0x09, 6	; 9
     79e:	0c c0       	rjmp	.+24     	; 0x7b8 <DHT_ReadRaw+0x6e>
     7a0:	4a e0       	ldi	r20, 0x0A	; 10
     7a2:	4a 95       	dec	r20
     7a4:	f1 f7       	brne	.-4      	; 0x7a2 <DHT_ReadRaw+0x58>
     7a6:	00 c0       	rjmp	.+0      	; 0x7a8 <DHT_ReadRaw+0x5e>
     7a8:	21 50       	subi	r18, 0x01	; 1
     7aa:	c1 f7       	brne	.-16     	; 0x79c <DHT_ReadRaw+0x52>
     7ac:	24 e0       	ldi	r18, 0x04	; 4
     7ae:	30 e0       	ldi	r19, 0x00	; 0
     7b0:	30 93 46 01 	sts	0x0146, r19	; 0x800146 <__DHT_STATUS+0x1>
     7b4:	20 93 45 01 	sts	0x0145, r18	; 0x800145 <__DHT_STATUS>
     7b8:	20 91 45 01 	lds	r18, 0x0145	; 0x800145 <__DHT_STATUS>
     7bc:	30 91 46 01 	lds	r19, 0x0146	; 0x800146 <__DHT_STATUS+0x1>
     7c0:	23 2b       	or	r18, r19
     7c2:	f1 f4       	brne	.+60     	; 0x800 <DHT_ReadRaw+0xb6>
     7c4:	23 e3       	ldi	r18, 0x33	; 51
     7c6:	4e 99       	sbic	0x09, 6	; 9
     7c8:	0c c0       	rjmp	.+24     	; 0x7e2 <DHT_ReadRaw+0x98>
     7ca:	5a e0       	ldi	r21, 0x0A	; 10
     7cc:	5a 95       	dec	r21
     7ce:	f1 f7       	brne	.-4      	; 0x7cc <DHT_ReadRaw+0x82>
     7d0:	00 c0       	rjmp	.+0      	; 0x7d2 <DHT_ReadRaw+0x88>
     7d2:	21 50       	subi	r18, 0x01	; 1
     7d4:	c1 f7       	brne	.-16     	; 0x7c6 <DHT_ReadRaw+0x7c>
     7d6:	24 e0       	ldi	r18, 0x04	; 4
     7d8:	30 e0       	ldi	r19, 0x00	; 0
     7da:	30 93 46 01 	sts	0x0146, r19	; 0x800146 <__DHT_STATUS+0x1>
     7de:	20 93 45 01 	sts	0x0145, r18	; 0x800145 <__DHT_STATUS>
     7e2:	23 e3       	ldi	r18, 0x33	; 51
     7e4:	4e 9b       	sbis	0x09, 6	; 9
     7e6:	0c c0       	rjmp	.+24     	; 0x800 <DHT_ReadRaw+0xb6>
     7e8:	aa e0       	ldi	r26, 0x0A	; 10
     7ea:	aa 95       	dec	r26
     7ec:	f1 f7       	brne	.-4      	; 0x7ea <DHT_ReadRaw+0xa0>
     7ee:	00 c0       	rjmp	.+0      	; 0x7f0 <DHT_ReadRaw+0xa6>
     7f0:	21 50       	subi	r18, 0x01	; 1
     7f2:	c1 f7       	brne	.-16     	; 0x7e4 <DHT_ReadRaw+0x9a>
     7f4:	24 e0       	ldi	r18, 0x04	; 4
     7f6:	30 e0       	ldi	r19, 0x00	; 0
     7f8:	30 93 46 01 	sts	0x0146, r19	; 0x800146 <__DHT_STATUS+0x1>
     7fc:	20 93 45 01 	sts	0x0145, r18	; 0x800145 <__DHT_STATUS>
     800:	20 91 45 01 	lds	r18, 0x0145	; 0x800145 <__DHT_STATUS>
     804:	30 91 46 01 	lds	r19, 0x0146	; 0x800146 <__DHT_STATUS+0x1>
     808:	23 2b       	or	r18, r19
     80a:	09 f0       	breq	.+2      	; 0x80e <DHT_ReadRaw+0xc4>
     80c:	49 c0       	rjmp	.+146    	; 0x8a0 <DHT_ReadRaw+0x156>
     80e:	30 e0       	ldi	r19, 0x00	; 0
     810:	c1 2c       	mov	r12, r1
     812:	d1 2c       	mov	r13, r1
     814:	76 01       	movw	r14, r12
     816:	c3 94       	inc	r12
     818:	44 e0       	ldi	r20, 0x04	; 4
     81a:	84 2e       	mov	r8, r20
     81c:	91 2c       	mov	r9, r1
     81e:	27 e0       	ldi	r18, 0x07	; 7
     820:	44 e2       	ldi	r20, 0x24	; 36
     822:	4e 99       	sbic	0x09, 6	; 9
     824:	0c c0       	rjmp	.+24     	; 0x83e <DHT_ReadRaw+0xf4>
     826:	ba e0       	ldi	r27, 0x0A	; 10
     828:	ba 95       	dec	r27
     82a:	f1 f7       	brne	.-4      	; 0x828 <DHT_ReadRaw+0xde>
     82c:	00 c0       	rjmp	.+0      	; 0x82e <DHT_ReadRaw+0xe4>
     82e:	41 50       	subi	r20, 0x01	; 1
     830:	c1 f7       	brne	.-16     	; 0x822 <DHT_ReadRaw+0xd8>
     832:	90 92 46 01 	sts	0x0146, r9	; 0x800146 <__DHT_STATUS+0x1>
     836:	80 92 45 01 	sts	0x0145, r8	; 0x800145 <__DHT_STATUS>
     83a:	2f ef       	ldi	r18, 0xFF	; 255
     83c:	35 e0       	ldi	r19, 0x05	; 5
     83e:	40 91 45 01 	lds	r20, 0x0145	; 0x800145 <__DHT_STATUS>
     842:	50 91 46 01 	lds	r21, 0x0146	; 0x800146 <__DHT_STATUS+0x1>
     846:	45 2b       	or	r20, r21
     848:	21 f5       	brne	.+72     	; 0x892 <DHT_ReadRaw+0x148>
     84a:	4a eb       	ldi	r20, 0xBA	; 186
     84c:	4a 95       	dec	r20
     84e:	f1 f7       	brne	.-4      	; 0x84c <DHT_ReadRaw+0x102>
     850:	00 c0       	rjmp	.+0      	; 0x852 <DHT_ReadRaw+0x108>
     852:	4e 9b       	sbis	0x09, 6	; 9
     854:	11 c0       	rjmp	.+34     	; 0x878 <DHT_ReadRaw+0x12e>
     856:	8f 01       	movw	r16, r30
     858:	03 0f       	add	r16, r19
     85a:	11 1d       	adc	r17, r1
     85c:	d8 01       	movw	r26, r16
     85e:	bc 90       	ld	r11, X
     860:	b7 01       	movw	r22, r14
     862:	a6 01       	movw	r20, r12
     864:	02 2e       	mov	r0, r18
     866:	04 c0       	rjmp	.+8      	; 0x870 <DHT_ReadRaw+0x126>
     868:	44 0f       	add	r20, r20
     86a:	55 1f       	adc	r21, r21
     86c:	66 1f       	adc	r22, r22
     86e:	77 1f       	adc	r23, r23
     870:	0a 94       	dec	r0
     872:	d2 f7       	brpl	.-12     	; 0x868 <DHT_ReadRaw+0x11e>
     874:	4b 29       	or	r20, r11
     876:	4c 93       	st	X, r20
     878:	43 e3       	ldi	r20, 0x33	; 51
     87a:	4e 9b       	sbis	0x09, 6	; 9
     87c:	0a c0       	rjmp	.+20     	; 0x892 <DHT_ReadRaw+0x148>
     87e:	ba e0       	ldi	r27, 0x0A	; 10
     880:	ba 95       	dec	r27
     882:	f1 f7       	brne	.-4      	; 0x880 <DHT_ReadRaw+0x136>
     884:	00 c0       	rjmp	.+0      	; 0x886 <DHT_ReadRaw+0x13c>
     886:	41 50       	subi	r20, 0x01	; 1
     888:	c1 f7       	brne	.-16     	; 0x87a <DHT_ReadRaw+0x130>
     88a:	90 92 46 01 	sts	0x0146, r9	; 0x800146 <__DHT_STATUS+0x1>
     88e:	80 92 45 01 	sts	0x0145, r8	; 0x800145 <__DHT_STATUS>
     892:	21 50       	subi	r18, 0x01	; 1
     894:	27 ff       	sbrs	r18, 7
     896:	c4 cf       	rjmp	.-120    	; 0x820 <DHT_ReadRaw+0xd6>
     898:	3f 5f       	subi	r19, 0xFF	; 255
     89a:	35 30       	cpi	r19, 0x05	; 5
     89c:	08 f4       	brcc	.+2      	; 0x8a0 <DHT_ReadRaw+0x156>
     89e:	bf cf       	rjmp	.-130    	; 0x81e <DHT_ReadRaw+0xd4>
     8a0:	20 91 45 01 	lds	r18, 0x0145	; 0x800145 <__DHT_STATUS>
     8a4:	30 91 46 01 	lds	r19, 0x0146	; 0x800146 <__DHT_STATUS+0x1>
     8a8:	23 2b       	or	r18, r19
     8aa:	c9 f4       	brne	.+50     	; 0x8de <DHT_ReadRaw+0x194>
     8ac:	39 81       	ldd	r19, Y+1	; 0x01
     8ae:	2a 81       	ldd	r18, Y+2	; 0x02
     8b0:	23 0f       	add	r18, r19
     8b2:	3b 81       	ldd	r19, Y+3	; 0x03
     8b4:	23 0f       	add	r18, r19
     8b6:	3c 81       	ldd	r19, Y+4	; 0x04
     8b8:	23 0f       	add	r18, r19
     8ba:	3d 81       	ldd	r19, Y+5	; 0x05
     8bc:	23 17       	cp	r18, r19
     8be:	39 f0       	breq	.+14     	; 0x8ce <DHT_ReadRaw+0x184>
     8c0:	83 e0       	ldi	r24, 0x03	; 3
     8c2:	90 e0       	ldi	r25, 0x00	; 0
     8c4:	90 93 46 01 	sts	0x0146, r25	; 0x800146 <__DHT_STATUS+0x1>
     8c8:	80 93 45 01 	sts	0x0145, r24	; 0x800145 <__DHT_STATUS>
     8cc:	08 c0       	rjmp	.+16     	; 0x8de <DHT_ReadRaw+0x194>
     8ce:	dc 01       	movw	r26, r24
     8d0:	ce 01       	movw	r24, r28
     8d2:	05 96       	adiw	r24, 0x05	; 5
     8d4:	21 91       	ld	r18, Z+
     8d6:	2d 93       	st	X+, r18
     8d8:	e8 17       	cp	r30, r24
     8da:	f9 07       	cpc	r31, r25
     8dc:	d9 f7       	brne	.-10     	; 0x8d4 <DHT_ReadRaw+0x18a>
     8de:	0f 90       	pop	r0
     8e0:	0f 90       	pop	r0
     8e2:	0f 90       	pop	r0
     8e4:	0f 90       	pop	r0
     8e6:	0f 90       	pop	r0
     8e8:	df 91       	pop	r29
     8ea:	cf 91       	pop	r28
     8ec:	1f 91       	pop	r17
     8ee:	0f 91       	pop	r16
     8f0:	ff 90       	pop	r15
     8f2:	ef 90       	pop	r14
     8f4:	df 90       	pop	r13
     8f6:	cf 90       	pop	r12
     8f8:	bf 90       	pop	r11
     8fa:	9f 90       	pop	r9
     8fc:	8f 90       	pop	r8
     8fe:	08 95       	ret

00000900 <DHT_Read>:
     900:	8f 92       	push	r8
     902:	9f 92       	push	r9
     904:	af 92       	push	r10
     906:	bf 92       	push	r11
     908:	cf 92       	push	r12
     90a:	df 92       	push	r13
     90c:	ef 92       	push	r14
     90e:	ff 92       	push	r15
     910:	0f 93       	push	r16
     912:	1f 93       	push	r17
     914:	cf 93       	push	r28
     916:	df 93       	push	r29
     918:	00 d0       	rcall	.+0      	; 0x91a <DHT_Read+0x1a>
     91a:	00 d0       	rcall	.+0      	; 0x91c <DHT_Read+0x1c>
     91c:	cd b7       	in	r28, 0x3d	; 61
     91e:	de b7       	in	r29, 0x3e	; 62
     920:	8c 01       	movw	r16, r24
     922:	5b 01       	movw	r10, r22
     924:	19 82       	std	Y+1, r1	; 0x01
     926:	1a 82       	std	Y+2, r1	; 0x02
     928:	1b 82       	std	Y+3, r1	; 0x03
     92a:	1c 82       	std	Y+4, r1	; 0x04
     92c:	ce 01       	movw	r24, r28
     92e:	01 96       	adiw	r24, 0x01	; 1
     930:	0e 94 a5 03 	call	0x74a	; 0x74a <DHT_ReadRaw>
     934:	80 91 45 01 	lds	r24, 0x0145	; 0x800145 <__DHT_STATUS>
     938:	90 91 46 01 	lds	r25, 0x0146	; 0x800146 <__DHT_STATUS+0x1>
     93c:	89 2b       	or	r24, r25
     93e:	09 f0       	breq	.+2      	; 0x942 <DHT_Read+0x42>
     940:	4d c0       	rjmp	.+154    	; 0x9dc <DHT_Read+0xdc>
     942:	6b 81       	ldd	r22, Y+3	; 0x03
     944:	70 e0       	ldi	r23, 0x00	; 0
     946:	80 e0       	ldi	r24, 0x00	; 0
     948:	90 e0       	ldi	r25, 0x00	; 0
     94a:	0e 94 f5 05 	call	0xbea	; 0xbea <__floatunsisf>
     94e:	f8 01       	movw	r30, r16
     950:	60 83       	st	Z, r22
     952:	71 83       	std	Z+1, r23	; 0x01
     954:	82 83       	std	Z+2, r24	; 0x02
     956:	93 83       	std	Z+3, r25	; 0x03
     958:	69 81       	ldd	r22, Y+1	; 0x01
     95a:	70 e0       	ldi	r23, 0x00	; 0
     95c:	80 e0       	ldi	r24, 0x00	; 0
     95e:	90 e0       	ldi	r25, 0x00	; 0
     960:	0e 94 f5 05 	call	0xbea	; 0xbea <__floatunsisf>
     964:	6b 01       	movw	r12, r22
     966:	7c 01       	movw	r14, r24
     968:	f5 01       	movw	r30, r10
     96a:	60 83       	st	Z, r22
     96c:	71 83       	std	Z+1, r23	; 0x01
     96e:	82 83       	std	Z+2, r24	; 0x02
     970:	93 83       	std	Z+3, r25	; 0x03
     972:	f8 01       	movw	r30, r16
     974:	80 80       	ld	r8, Z
     976:	91 80       	ldd	r9, Z+1	; 0x01
     978:	a2 80       	ldd	r10, Z+2	; 0x02
     97a:	b3 80       	ldd	r11, Z+3	; 0x03
     97c:	20 e0       	ldi	r18, 0x00	; 0
     97e:	30 e0       	ldi	r19, 0x00	; 0
     980:	a9 01       	movw	r20, r18
     982:	c5 01       	movw	r24, r10
     984:	b4 01       	movw	r22, r8
     986:	0e 94 f0 05 	call	0xbe0	; 0xbe0 <__cmpsf2>
     98a:	87 fd       	sbrc	r24, 7
     98c:	0a c0       	rjmp	.+20     	; 0x9a2 <DHT_Read+0xa2>
     98e:	20 e0       	ldi	r18, 0x00	; 0
     990:	30 e0       	ldi	r19, 0x00	; 0
     992:	48 e4       	ldi	r20, 0x48	; 72
     994:	52 e4       	ldi	r21, 0x42	; 66
     996:	c5 01       	movw	r24, r10
     998:	b4 01       	movw	r22, r8
     99a:	0e 94 a7 06 	call	0xd4e	; 0xd4e <__gesf2>
     99e:	18 16       	cp	r1, r24
     9a0:	1c f4       	brge	.+6      	; 0x9a8 <DHT_Read+0xa8>
     9a2:	82 e0       	ldi	r24, 0x02	; 2
     9a4:	90 e0       	ldi	r25, 0x00	; 0
     9a6:	16 c0       	rjmp	.+44     	; 0x9d4 <DHT_Read+0xd4>
     9a8:	20 e0       	ldi	r18, 0x00	; 0
     9aa:	30 e0       	ldi	r19, 0x00	; 0
     9ac:	40 ea       	ldi	r20, 0xA0	; 160
     9ae:	51 e4       	ldi	r21, 0x41	; 65
     9b0:	c7 01       	movw	r24, r14
     9b2:	b6 01       	movw	r22, r12
     9b4:	0e 94 f0 05 	call	0xbe0	; 0xbe0 <__cmpsf2>
     9b8:	87 fd       	sbrc	r24, 7
     9ba:	0a c0       	rjmp	.+20     	; 0x9d0 <DHT_Read+0xd0>
     9bc:	20 e0       	ldi	r18, 0x00	; 0
     9be:	30 e0       	ldi	r19, 0x00	; 0
     9c0:	44 eb       	ldi	r20, 0xB4	; 180
     9c2:	52 e4       	ldi	r21, 0x42	; 66
     9c4:	c7 01       	movw	r24, r14
     9c6:	b6 01       	movw	r22, r12
     9c8:	0e 94 a7 06 	call	0xd4e	; 0xd4e <__gesf2>
     9cc:	18 16       	cp	r1, r24
     9ce:	34 f4       	brge	.+12     	; 0x9dc <DHT_Read+0xdc>
     9d0:	81 e0       	ldi	r24, 0x01	; 1
     9d2:	90 e0       	ldi	r25, 0x00	; 0
     9d4:	90 93 46 01 	sts	0x0146, r25	; 0x800146 <__DHT_STATUS+0x1>
     9d8:	80 93 45 01 	sts	0x0145, r24	; 0x800145 <__DHT_STATUS>
     9dc:	0f 90       	pop	r0
     9de:	0f 90       	pop	r0
     9e0:	0f 90       	pop	r0
     9e2:	0f 90       	pop	r0
     9e4:	df 91       	pop	r29
     9e6:	cf 91       	pop	r28
     9e8:	1f 91       	pop	r17
     9ea:	0f 91       	pop	r16
     9ec:	ff 90       	pop	r15
     9ee:	ef 90       	pop	r14
     9f0:	df 90       	pop	r13
     9f2:	cf 90       	pop	r12
     9f4:	bf 90       	pop	r11
     9f6:	af 90       	pop	r10
     9f8:	9f 90       	pop	r9
     9fa:	8f 90       	pop	r8
     9fc:	08 95       	ret

000009fe <DHT_ReadTemperature>:
     9fe:	cf 93       	push	r28
     a00:	df 93       	push	r29
     a02:	00 d0       	rcall	.+0      	; 0xa04 <DHT_ReadTemperature+0x6>
     a04:	00 d0       	rcall	.+0      	; 0xa06 <DHT_ReadTemperature+0x8>
     a06:	cd b7       	in	r28, 0x3d	; 61
     a08:	de b7       	in	r29, 0x3e	; 62
     a0a:	be 01       	movw	r22, r28
     a0c:	6f 5f       	subi	r22, 0xFF	; 255
     a0e:	7f 4f       	sbci	r23, 0xFF	; 255
     a10:	0e 94 80 04 	call	0x900	; 0x900 <DHT_Read>
     a14:	0f 90       	pop	r0
     a16:	0f 90       	pop	r0
     a18:	0f 90       	pop	r0
     a1a:	0f 90       	pop	r0
     a1c:	df 91       	pop	r29
     a1e:	cf 91       	pop	r28
     a20:	08 95       	ret

00000a22 <DHT_ReadHumidity>:
     a22:	cf 93       	push	r28
     a24:	df 93       	push	r29
     a26:	00 d0       	rcall	.+0      	; 0xa28 <DHT_ReadHumidity+0x6>
     a28:	00 d0       	rcall	.+0      	; 0xa2a <DHT_ReadHumidity+0x8>
     a2a:	cd b7       	in	r28, 0x3d	; 61
     a2c:	de b7       	in	r29, 0x3e	; 62
     a2e:	bc 01       	movw	r22, r24
     a30:	ce 01       	movw	r24, r28
     a32:	01 96       	adiw	r24, 0x01	; 1
     a34:	0e 94 80 04 	call	0x900	; 0x900 <DHT_Read>
     a38:	0f 90       	pop	r0
     a3a:	0f 90       	pop	r0
     a3c:	0f 90       	pop	r0
     a3e:	0f 90       	pop	r0
     a40:	df 91       	pop	r29
     a42:	cf 91       	pop	r28
     a44:	08 95       	ret

00000a46 <DHT_ConvertToFahrenheit>:
     a46:	26 e6       	ldi	r18, 0x66	; 102
     a48:	36 e6       	ldi	r19, 0x66	; 102
     a4a:	46 ee       	ldi	r20, 0xE6	; 230
     a4c:	5f e3       	ldi	r21, 0x3F	; 63
     a4e:	0e 94 ac 06 	call	0xd58	; 0xd58 <__mulsf3>
     a52:	20 e0       	ldi	r18, 0x00	; 0
     a54:	30 e0       	ldi	r19, 0x00	; 0
     a56:	40 e0       	ldi	r20, 0x00	; 0
     a58:	52 e4       	ldi	r21, 0x42	; 66
     a5a:	0e 94 84 05 	call	0xb08	; 0xb08 <__addsf3>
     a5e:	08 95       	ret

00000a60 <DHT_ConvertToKelvin>:
     a60:	23 e3       	ldi	r18, 0x33	; 51
     a62:	33 e9       	ldi	r19, 0x93	; 147
     a64:	48 e8       	ldi	r20, 0x88	; 136
     a66:	53 e4       	ldi	r21, 0x43	; 67
     a68:	0e 94 84 05 	call	0xb08	; 0xb08 <__addsf3>
     a6c:	08 95       	ret

00000a6e <main>:
     a6e:	cf 93       	push	r28
     a70:	df 93       	push	r29
     a72:	cd b7       	in	r28, 0x3d	; 61
     a74:	de b7       	in	r29, 0x3e	; 62
     a76:	28 97       	sbiw	r28, 0x08	; 8
     a78:	0f b6       	in	r0, 0x3f	; 63
     a7a:	f8 94       	cli
     a7c:	de bf       	out	0x3e, r29	; 62
     a7e:	0f be       	out	0x3f, r0	; 63
     a80:	cd bf       	out	0x3d, r28	; 61
     a82:	86 e1       	ldi	r24, 0x16	; 22
     a84:	91 e0       	ldi	r25, 0x01	; 1
     a86:	9f 93       	push	r25
     a88:	8f 93       	push	r24
     a8a:	0e 94 19 07 	call	0xe32	; 0xe32 <printf>
     a8e:	0e 94 92 03 	call	0x724	; 0x724 <DHT_Setup>
     a92:	0f 90       	pop	r0
     a94:	0f 90       	pop	r0
     a96:	7e 01       	movw	r14, r28
     a98:	25 e0       	ldi	r18, 0x05	; 5
     a9a:	e2 0e       	add	r14, r18
     a9c:	f1 1c       	adc	r15, r1
     a9e:	ce 01       	movw	r24, r28
     aa0:	01 96       	adiw	r24, 0x01	; 1
     aa2:	6c 01       	movw	r12, r24
     aa4:	8e e1       	ldi	r24, 0x1E	; 30
     aa6:	88 2e       	mov	r8, r24
     aa8:	81 e0       	ldi	r24, 0x01	; 1
     aaa:	98 2e       	mov	r9, r24
     aac:	0c e2       	ldi	r16, 0x2C	; 44
     aae:	11 e0       	ldi	r17, 0x01	; 1
     ab0:	90 e3       	ldi	r25, 0x30	; 48
     ab2:	a9 2e       	mov	r10, r25
     ab4:	91 e0       	ldi	r25, 0x01	; 1
     ab6:	b9 2e       	mov	r11, r25
     ab8:	b6 01       	movw	r22, r12
     aba:	c7 01       	movw	r24, r14
     abc:	0e 94 80 04 	call	0x900	; 0x900 <DHT_Read>
     ac0:	9f 92       	push	r9
     ac2:	8f 92       	push	r8
     ac4:	0e 94 19 07 	call	0xe32	; 0xe32 <printf>
     ac8:	ff 92       	push	r15
     aca:	ef 92       	push	r14
     acc:	1f 93       	push	r17
     ace:	0f 93       	push	r16
     ad0:	0e 94 19 07 	call	0xe32	; 0xe32 <printf>
     ad4:	bf 92       	push	r11
     ad6:	af 92       	push	r10
     ad8:	0e 94 19 07 	call	0xe32	; 0xe32 <printf>
     adc:	df 92       	push	r13
     ade:	cf 92       	push	r12
     ae0:	1f 93       	push	r17
     ae2:	0f 93       	push	r16
     ae4:	0e 94 19 07 	call	0xe32	; 0xe32 <printf>
     ae8:	9f ef       	ldi	r25, 0xFF	; 255
     aea:	23 ed       	ldi	r18, 0xD3	; 211
     aec:	80 e3       	ldi	r24, 0x30	; 48
     aee:	91 50       	subi	r25, 0x01	; 1
     af0:	20 40       	sbci	r18, 0x00	; 0
     af2:	80 40       	sbci	r24, 0x00	; 0
     af4:	e1 f7       	brne	.-8      	; 0xaee <main+0x80>
     af6:	00 c0       	rjmp	.+0      	; 0xaf8 <main+0x8a>
     af8:	00 00       	nop
     afa:	0f b6       	in	r0, 0x3f	; 63
     afc:	f8 94       	cli
     afe:	de bf       	out	0x3e, r29	; 62
     b00:	0f be       	out	0x3f, r0	; 63
     b02:	cd bf       	out	0x3d, r28	; 61
     b04:	d9 cf       	rjmp	.-78     	; 0xab8 <main+0x4a>

00000b06 <__subsf3>:
     b06:	50 58       	subi	r21, 0x80	; 128

00000b08 <__addsf3>:
     b08:	bb 27       	eor	r27, r27
     b0a:	aa 27       	eor	r26, r26
     b0c:	0e 94 9b 05 	call	0xb36	; 0xb36 <__addsf3x>
     b10:	0c 94 6d 06 	jmp	0xcda	; 0xcda <__fp_round>
     b14:	0e 94 5f 06 	call	0xcbe	; 0xcbe <__fp_pscA>
     b18:	38 f0       	brcs	.+14     	; 0xb28 <__addsf3+0x20>
     b1a:	0e 94 66 06 	call	0xccc	; 0xccc <__fp_pscB>
     b1e:	20 f0       	brcs	.+8      	; 0xb28 <__addsf3+0x20>
     b20:	39 f4       	brne	.+14     	; 0xb30 <__addsf3+0x28>
     b22:	9f 3f       	cpi	r25, 0xFF	; 255
     b24:	19 f4       	brne	.+6      	; 0xb2c <__addsf3+0x24>
     b26:	26 f4       	brtc	.+8      	; 0xb30 <__addsf3+0x28>
     b28:	0c 94 5c 06 	jmp	0xcb8	; 0xcb8 <__fp_nan>
     b2c:	0e f4       	brtc	.+2      	; 0xb30 <__addsf3+0x28>
     b2e:	e0 95       	com	r30
     b30:	e7 fb       	bst	r30, 7
     b32:	0c 94 56 06 	jmp	0xcac	; 0xcac <__fp_inf>

00000b36 <__addsf3x>:
     b36:	e9 2f       	mov	r30, r25
     b38:	0e 94 7e 06 	call	0xcfc	; 0xcfc <__fp_split3>
     b3c:	58 f3       	brcs	.-42     	; 0xb14 <__addsf3+0xc>
     b3e:	ba 17       	cp	r27, r26
     b40:	62 07       	cpc	r22, r18
     b42:	73 07       	cpc	r23, r19
     b44:	84 07       	cpc	r24, r20
     b46:	95 07       	cpc	r25, r21
     b48:	20 f0       	brcs	.+8      	; 0xb52 <__addsf3x+0x1c>
     b4a:	79 f4       	brne	.+30     	; 0xb6a <__addsf3x+0x34>
     b4c:	a6 f5       	brtc	.+104    	; 0xbb6 <__addsf3x+0x80>
     b4e:	0c 94 a0 06 	jmp	0xd40	; 0xd40 <__fp_zero>
     b52:	0e f4       	brtc	.+2      	; 0xb56 <__addsf3x+0x20>
     b54:	e0 95       	com	r30
     b56:	0b 2e       	mov	r0, r27
     b58:	ba 2f       	mov	r27, r26
     b5a:	a0 2d       	mov	r26, r0
     b5c:	0b 01       	movw	r0, r22
     b5e:	b9 01       	movw	r22, r18
     b60:	90 01       	movw	r18, r0
     b62:	0c 01       	movw	r0, r24
     b64:	ca 01       	movw	r24, r20
     b66:	a0 01       	movw	r20, r0
     b68:	11 24       	eor	r1, r1
     b6a:	ff 27       	eor	r31, r31
     b6c:	59 1b       	sub	r21, r25
     b6e:	99 f0       	breq	.+38     	; 0xb96 <__addsf3x+0x60>
     b70:	59 3f       	cpi	r21, 0xF9	; 249
     b72:	50 f4       	brcc	.+20     	; 0xb88 <__addsf3x+0x52>
     b74:	50 3e       	cpi	r21, 0xE0	; 224
     b76:	68 f1       	brcs	.+90     	; 0xbd2 <__addsf3x+0x9c>
     b78:	1a 16       	cp	r1, r26
     b7a:	f0 40       	sbci	r31, 0x00	; 0
     b7c:	a2 2f       	mov	r26, r18
     b7e:	23 2f       	mov	r18, r19
     b80:	34 2f       	mov	r19, r20
     b82:	44 27       	eor	r20, r20
     b84:	58 5f       	subi	r21, 0xF8	; 248
     b86:	f3 cf       	rjmp	.-26     	; 0xb6e <__addsf3x+0x38>
     b88:	46 95       	lsr	r20
     b8a:	37 95       	ror	r19
     b8c:	27 95       	ror	r18
     b8e:	a7 95       	ror	r26
     b90:	f0 40       	sbci	r31, 0x00	; 0
     b92:	53 95       	inc	r21
     b94:	c9 f7       	brne	.-14     	; 0xb88 <__addsf3x+0x52>
     b96:	7e f4       	brtc	.+30     	; 0xbb6 <__addsf3x+0x80>
     b98:	1f 16       	cp	r1, r31
     b9a:	ba 0b       	sbc	r27, r26
     b9c:	62 0b       	sbc	r22, r18
     b9e:	73 0b       	sbc	r23, r19
     ba0:	84 0b       	sbc	r24, r20
     ba2:	ba f0       	brmi	.+46     	; 0xbd2 <__addsf3x+0x9c>
     ba4:	91 50       	subi	r25, 0x01	; 1
     ba6:	a1 f0       	breq	.+40     	; 0xbd0 <__addsf3x+0x9a>
     ba8:	ff 0f       	add	r31, r31
     baa:	bb 1f       	adc	r27, r27
     bac:	66 1f       	adc	r22, r22
     bae:	77 1f       	adc	r23, r23
     bb0:	88 1f       	adc	r24, r24
     bb2:	c2 f7       	brpl	.-16     	; 0xba4 <__addsf3x+0x6e>
     bb4:	0e c0       	rjmp	.+28     	; 0xbd2 <__addsf3x+0x9c>
     bb6:	ba 0f       	add	r27, r26
     bb8:	62 1f       	adc	r22, r18
     bba:	73 1f       	adc	r23, r19
     bbc:	84 1f       	adc	r24, r20
     bbe:	48 f4       	brcc	.+18     	; 0xbd2 <__addsf3x+0x9c>
     bc0:	87 95       	ror	r24
     bc2:	77 95       	ror	r23
     bc4:	67 95       	ror	r22
     bc6:	b7 95       	ror	r27
     bc8:	f7 95       	ror	r31
     bca:	9e 3f       	cpi	r25, 0xFE	; 254
     bcc:	08 f0       	brcs	.+2      	; 0xbd0 <__addsf3x+0x9a>
     bce:	b0 cf       	rjmp	.-160    	; 0xb30 <__addsf3+0x28>
     bd0:	93 95       	inc	r25
     bd2:	88 0f       	add	r24, r24
     bd4:	08 f0       	brcs	.+2      	; 0xbd8 <__addsf3x+0xa2>
     bd6:	99 27       	eor	r25, r25
     bd8:	ee 0f       	add	r30, r30
     bda:	97 95       	ror	r25
     bdc:	87 95       	ror	r24
     bde:	08 95       	ret

00000be0 <__cmpsf2>:
     be0:	0e 94 32 06 	call	0xc64	; 0xc64 <__fp_cmp>
     be4:	08 f4       	brcc	.+2      	; 0xbe8 <__cmpsf2+0x8>
     be6:	81 e0       	ldi	r24, 0x01	; 1
     be8:	08 95       	ret

00000bea <__floatunsisf>:
     bea:	e8 94       	clt
     bec:	09 c0       	rjmp	.+18     	; 0xc00 <__floatsisf+0x12>

00000bee <__floatsisf>:
     bee:	97 fb       	bst	r25, 7
     bf0:	3e f4       	brtc	.+14     	; 0xc00 <__floatsisf+0x12>
     bf2:	90 95       	com	r25
     bf4:	80 95       	com	r24
     bf6:	70 95       	com	r23
     bf8:	61 95       	neg	r22
     bfa:	7f 4f       	sbci	r23, 0xFF	; 255
     bfc:	8f 4f       	sbci	r24, 0xFF	; 255
     bfe:	9f 4f       	sbci	r25, 0xFF	; 255
     c00:	99 23       	and	r25, r25
     c02:	a9 f0       	breq	.+42     	; 0xc2e <__floatsisf+0x40>
     c04:	f9 2f       	mov	r31, r25
     c06:	96 e9       	ldi	r25, 0x96	; 150
     c08:	bb 27       	eor	r27, r27
     c0a:	93 95       	inc	r25
     c0c:	f6 95       	lsr	r31
     c0e:	87 95       	ror	r24
     c10:	77 95       	ror	r23
     c12:	67 95       	ror	r22
     c14:	b7 95       	ror	r27
     c16:	f1 11       	cpse	r31, r1
     c18:	f8 cf       	rjmp	.-16     	; 0xc0a <__floatsisf+0x1c>
     c1a:	fa f4       	brpl	.+62     	; 0xc5a <__floatsisf+0x6c>
     c1c:	bb 0f       	add	r27, r27
     c1e:	11 f4       	brne	.+4      	; 0xc24 <__floatsisf+0x36>
     c20:	60 ff       	sbrs	r22, 0
     c22:	1b c0       	rjmp	.+54     	; 0xc5a <__floatsisf+0x6c>
     c24:	6f 5f       	subi	r22, 0xFF	; 255
     c26:	7f 4f       	sbci	r23, 0xFF	; 255
     c28:	8f 4f       	sbci	r24, 0xFF	; 255
     c2a:	9f 4f       	sbci	r25, 0xFF	; 255
     c2c:	16 c0       	rjmp	.+44     	; 0xc5a <__floatsisf+0x6c>
     c2e:	88 23       	and	r24, r24
     c30:	11 f0       	breq	.+4      	; 0xc36 <__floatsisf+0x48>
     c32:	96 e9       	ldi	r25, 0x96	; 150
     c34:	11 c0       	rjmp	.+34     	; 0xc58 <__floatsisf+0x6a>
     c36:	77 23       	and	r23, r23
     c38:	21 f0       	breq	.+8      	; 0xc42 <__floatsisf+0x54>
     c3a:	9e e8       	ldi	r25, 0x8E	; 142
     c3c:	87 2f       	mov	r24, r23
     c3e:	76 2f       	mov	r23, r22
     c40:	05 c0       	rjmp	.+10     	; 0xc4c <__floatsisf+0x5e>
     c42:	66 23       	and	r22, r22
     c44:	71 f0       	breq	.+28     	; 0xc62 <__floatsisf+0x74>
     c46:	96 e8       	ldi	r25, 0x86	; 134
     c48:	86 2f       	mov	r24, r22
     c4a:	70 e0       	ldi	r23, 0x00	; 0
     c4c:	60 e0       	ldi	r22, 0x00	; 0
     c4e:	2a f0       	brmi	.+10     	; 0xc5a <__floatsisf+0x6c>
     c50:	9a 95       	dec	r25
     c52:	66 0f       	add	r22, r22
     c54:	77 1f       	adc	r23, r23
     c56:	88 1f       	adc	r24, r24
     c58:	da f7       	brpl	.-10     	; 0xc50 <__floatsisf+0x62>
     c5a:	88 0f       	add	r24, r24
     c5c:	96 95       	lsr	r25
     c5e:	87 95       	ror	r24
     c60:	97 f9       	bld	r25, 7
     c62:	08 95       	ret

00000c64 <__fp_cmp>:
     c64:	99 0f       	add	r25, r25
     c66:	00 08       	sbc	r0, r0
     c68:	55 0f       	add	r21, r21
     c6a:	aa 0b       	sbc	r26, r26
     c6c:	e0 e8       	ldi	r30, 0x80	; 128
     c6e:	fe ef       	ldi	r31, 0xFE	; 254
     c70:	16 16       	cp	r1, r22
     c72:	17 06       	cpc	r1, r23
     c74:	e8 07       	cpc	r30, r24
     c76:	f9 07       	cpc	r31, r25
     c78:	c0 f0       	brcs	.+48     	; 0xcaa <__fp_cmp+0x46>
     c7a:	12 16       	cp	r1, r18
     c7c:	13 06       	cpc	r1, r19
     c7e:	e4 07       	cpc	r30, r20
     c80:	f5 07       	cpc	r31, r21
     c82:	98 f0       	brcs	.+38     	; 0xcaa <__fp_cmp+0x46>
     c84:	62 1b       	sub	r22, r18
     c86:	73 0b       	sbc	r23, r19
     c88:	84 0b       	sbc	r24, r20
     c8a:	95 0b       	sbc	r25, r21
     c8c:	39 f4       	brne	.+14     	; 0xc9c <__fp_cmp+0x38>
     c8e:	0a 26       	eor	r0, r26
     c90:	61 f0       	breq	.+24     	; 0xcaa <__fp_cmp+0x46>
     c92:	23 2b       	or	r18, r19
     c94:	24 2b       	or	r18, r20
     c96:	25 2b       	or	r18, r21
     c98:	21 f4       	brne	.+8      	; 0xca2 <__fp_cmp+0x3e>
     c9a:	08 95       	ret
     c9c:	0a 26       	eor	r0, r26
     c9e:	09 f4       	brne	.+2      	; 0xca2 <__fp_cmp+0x3e>
     ca0:	a1 40       	sbci	r26, 0x01	; 1
     ca2:	a6 95       	lsr	r26
     ca4:	8f ef       	ldi	r24, 0xFF	; 255
     ca6:	81 1d       	adc	r24, r1
     ca8:	81 1d       	adc	r24, r1
     caa:	08 95       	ret

00000cac <__fp_inf>:
     cac:	97 f9       	bld	r25, 7
     cae:	9f 67       	ori	r25, 0x7F	; 127
     cb0:	80 e8       	ldi	r24, 0x80	; 128
     cb2:	70 e0       	ldi	r23, 0x00	; 0
     cb4:	60 e0       	ldi	r22, 0x00	; 0
     cb6:	08 95       	ret

00000cb8 <__fp_nan>:
     cb8:	9f ef       	ldi	r25, 0xFF	; 255
     cba:	80 ec       	ldi	r24, 0xC0	; 192
     cbc:	08 95       	ret

00000cbe <__fp_pscA>:
     cbe:	00 24       	eor	r0, r0
     cc0:	0a 94       	dec	r0
     cc2:	16 16       	cp	r1, r22
     cc4:	17 06       	cpc	r1, r23
     cc6:	18 06       	cpc	r1, r24
     cc8:	09 06       	cpc	r0, r25
     cca:	08 95       	ret

00000ccc <__fp_pscB>:
     ccc:	00 24       	eor	r0, r0
     cce:	0a 94       	dec	r0
     cd0:	12 16       	cp	r1, r18
     cd2:	13 06       	cpc	r1, r19
     cd4:	14 06       	cpc	r1, r20
     cd6:	05 06       	cpc	r0, r21
     cd8:	08 95       	ret

00000cda <__fp_round>:
     cda:	09 2e       	mov	r0, r25
     cdc:	03 94       	inc	r0
     cde:	00 0c       	add	r0, r0
     ce0:	11 f4       	brne	.+4      	; 0xce6 <__fp_round+0xc>
     ce2:	88 23       	and	r24, r24
     ce4:	52 f0       	brmi	.+20     	; 0xcfa <__fp_round+0x20>
     ce6:	bb 0f       	add	r27, r27
     ce8:	40 f4       	brcc	.+16     	; 0xcfa <__fp_round+0x20>
     cea:	bf 2b       	or	r27, r31
     cec:	11 f4       	brne	.+4      	; 0xcf2 <__fp_round+0x18>
     cee:	60 ff       	sbrs	r22, 0
     cf0:	04 c0       	rjmp	.+8      	; 0xcfa <__fp_round+0x20>
     cf2:	6f 5f       	subi	r22, 0xFF	; 255
     cf4:	7f 4f       	sbci	r23, 0xFF	; 255
     cf6:	8f 4f       	sbci	r24, 0xFF	; 255
     cf8:	9f 4f       	sbci	r25, 0xFF	; 255
     cfa:	08 95       	ret

00000cfc <__fp_split3>:
     cfc:	57 fd       	sbrc	r21, 7
     cfe:	90 58       	subi	r25, 0x80	; 128
     d00:	44 0f       	add	r20, r20
     d02:	55 1f       	adc	r21, r21
     d04:	59 f0       	breq	.+22     	; 0xd1c <__fp_splitA+0x10>
     d06:	5f 3f       	cpi	r21, 0xFF	; 255
     d08:	71 f0       	breq	.+28     	; 0xd26 <__fp_splitA+0x1a>
     d0a:	47 95       	ror	r20

00000d0c <__fp_splitA>:
     d0c:	88 0f       	add	r24, r24
     d0e:	97 fb       	bst	r25, 7
     d10:	99 1f       	adc	r25, r25
     d12:	61 f0       	breq	.+24     	; 0xd2c <__fp_splitA+0x20>
     d14:	9f 3f       	cpi	r25, 0xFF	; 255
     d16:	79 f0       	breq	.+30     	; 0xd36 <__fp_splitA+0x2a>
     d18:	87 95       	ror	r24
     d1a:	08 95       	ret
     d1c:	12 16       	cp	r1, r18
     d1e:	13 06       	cpc	r1, r19
     d20:	14 06       	cpc	r1, r20
     d22:	55 1f       	adc	r21, r21
     d24:	f2 cf       	rjmp	.-28     	; 0xd0a <__fp_split3+0xe>
     d26:	46 95       	lsr	r20
     d28:	f1 df       	rcall	.-30     	; 0xd0c <__fp_splitA>
     d2a:	08 c0       	rjmp	.+16     	; 0xd3c <__fp_splitA+0x30>
     d2c:	16 16       	cp	r1, r22
     d2e:	17 06       	cpc	r1, r23
     d30:	18 06       	cpc	r1, r24
     d32:	99 1f       	adc	r25, r25
     d34:	f1 cf       	rjmp	.-30     	; 0xd18 <__fp_splitA+0xc>
     d36:	86 95       	lsr	r24
     d38:	71 05       	cpc	r23, r1
     d3a:	61 05       	cpc	r22, r1
     d3c:	08 94       	sec
     d3e:	08 95       	ret

00000d40 <__fp_zero>:
     d40:	e8 94       	clt

00000d42 <__fp_szero>:
     d42:	bb 27       	eor	r27, r27
     d44:	66 27       	eor	r22, r22
     d46:	77 27       	eor	r23, r23
     d48:	cb 01       	movw	r24, r22
     d4a:	97 f9       	bld	r25, 7
     d4c:	08 95       	ret

00000d4e <__gesf2>:
     d4e:	0e 94 32 06 	call	0xc64	; 0xc64 <__fp_cmp>
     d52:	08 f4       	brcc	.+2      	; 0xd56 <__gesf2+0x8>
     d54:	8f ef       	ldi	r24, 0xFF	; 255
     d56:	08 95       	ret

00000d58 <__mulsf3>:
     d58:	0e 94 bf 06 	call	0xd7e	; 0xd7e <__mulsf3x>
     d5c:	0c 94 6d 06 	jmp	0xcda	; 0xcda <__fp_round>
     d60:	0e 94 5f 06 	call	0xcbe	; 0xcbe <__fp_pscA>
     d64:	38 f0       	brcs	.+14     	; 0xd74 <__mulsf3+0x1c>
     d66:	0e 94 66 06 	call	0xccc	; 0xccc <__fp_pscB>
     d6a:	20 f0       	brcs	.+8      	; 0xd74 <__mulsf3+0x1c>
     d6c:	95 23       	and	r25, r21
     d6e:	11 f0       	breq	.+4      	; 0xd74 <__mulsf3+0x1c>
     d70:	0c 94 56 06 	jmp	0xcac	; 0xcac <__fp_inf>
     d74:	0c 94 5c 06 	jmp	0xcb8	; 0xcb8 <__fp_nan>
     d78:	11 24       	eor	r1, r1
     d7a:	0c 94 a1 06 	jmp	0xd42	; 0xd42 <__fp_szero>

00000d7e <__mulsf3x>:
     d7e:	0e 94 7e 06 	call	0xcfc	; 0xcfc <__fp_split3>
     d82:	70 f3       	brcs	.-36     	; 0xd60 <__mulsf3+0x8>

00000d84 <__mulsf3_pse>:
     d84:	95 9f       	mul	r25, r21
     d86:	c1 f3       	breq	.-16     	; 0xd78 <__mulsf3+0x20>
     d88:	95 0f       	add	r25, r21
     d8a:	50 e0       	ldi	r21, 0x00	; 0
     d8c:	55 1f       	adc	r21, r21
     d8e:	62 9f       	mul	r22, r18
     d90:	f0 01       	movw	r30, r0
     d92:	72 9f       	mul	r23, r18
     d94:	bb 27       	eor	r27, r27
     d96:	f0 0d       	add	r31, r0
     d98:	b1 1d       	adc	r27, r1
     d9a:	63 9f       	mul	r22, r19
     d9c:	aa 27       	eor	r26, r26
     d9e:	f0 0d       	add	r31, r0
     da0:	b1 1d       	adc	r27, r1
     da2:	aa 1f       	adc	r26, r26
     da4:	64 9f       	mul	r22, r20
     da6:	66 27       	eor	r22, r22
     da8:	b0 0d       	add	r27, r0
     daa:	a1 1d       	adc	r26, r1
     dac:	66 1f       	adc	r22, r22
     dae:	82 9f       	mul	r24, r18
     db0:	22 27       	eor	r18, r18
     db2:	b0 0d       	add	r27, r0
     db4:	a1 1d       	adc	r26, r1
     db6:	62 1f       	adc	r22, r18
     db8:	73 9f       	mul	r23, r19
     dba:	b0 0d       	add	r27, r0
     dbc:	a1 1d       	adc	r26, r1
     dbe:	62 1f       	adc	r22, r18
     dc0:	83 9f       	mul	r24, r19
     dc2:	a0 0d       	add	r26, r0
     dc4:	61 1d       	adc	r22, r1
     dc6:	22 1f       	adc	r18, r18
     dc8:	74 9f       	mul	r23, r20
     dca:	33 27       	eor	r19, r19
     dcc:	a0 0d       	add	r26, r0
     dce:	61 1d       	adc	r22, r1
     dd0:	23 1f       	adc	r18, r19
     dd2:	84 9f       	mul	r24, r20
     dd4:	60 0d       	add	r22, r0
     dd6:	21 1d       	adc	r18, r1
     dd8:	82 2f       	mov	r24, r18
     dda:	76 2f       	mov	r23, r22
     ddc:	6a 2f       	mov	r22, r26
     dde:	11 24       	eor	r1, r1
     de0:	9f 57       	subi	r25, 0x7F	; 127
     de2:	50 40       	sbci	r21, 0x00	; 0
     de4:	9a f0       	brmi	.+38     	; 0xe0c <__mulsf3_pse+0x88>
     de6:	f1 f0       	breq	.+60     	; 0xe24 <__mulsf3_pse+0xa0>
     de8:	88 23       	and	r24, r24
     dea:	4a f0       	brmi	.+18     	; 0xdfe <__mulsf3_pse+0x7a>
     dec:	ee 0f       	add	r30, r30
     dee:	ff 1f       	adc	r31, r31
     df0:	bb 1f       	adc	r27, r27
     df2:	66 1f       	adc	r22, r22
     df4:	77 1f       	adc	r23, r23
     df6:	88 1f       	adc	r24, r24
     df8:	91 50       	subi	r25, 0x01	; 1
     dfa:	50 40       	sbci	r21, 0x00	; 0
     dfc:	a9 f7       	brne	.-22     	; 0xde8 <__mulsf3_pse+0x64>
     dfe:	9e 3f       	cpi	r25, 0xFE	; 254
     e00:	51 05       	cpc	r21, r1
     e02:	80 f0       	brcs	.+32     	; 0xe24 <__mulsf3_pse+0xa0>
     e04:	0c 94 56 06 	jmp	0xcac	; 0xcac <__fp_inf>
     e08:	0c 94 a1 06 	jmp	0xd42	; 0xd42 <__fp_szero>
     e0c:	5f 3f       	cpi	r21, 0xFF	; 255
     e0e:	e4 f3       	brlt	.-8      	; 0xe08 <__mulsf3_pse+0x84>
     e10:	98 3e       	cpi	r25, 0xE8	; 232
     e12:	d4 f3       	brlt	.-12     	; 0xe08 <__mulsf3_pse+0x84>
     e14:	86 95       	lsr	r24
     e16:	77 95       	ror	r23
     e18:	67 95       	ror	r22
     e1a:	b7 95       	ror	r27
     e1c:	f7 95       	ror	r31
     e1e:	e7 95       	ror	r30
     e20:	9f 5f       	subi	r25, 0xFF	; 255
     e22:	c1 f7       	brne	.-16     	; 0xe14 <__mulsf3_pse+0x90>
     e24:	fe 2b       	or	r31, r30
     e26:	88 0f       	add	r24, r24
     e28:	91 1d       	adc	r25, r1
     e2a:	96 95       	lsr	r25
     e2c:	87 95       	ror	r24
     e2e:	97 f9       	bld	r25, 7
     e30:	08 95       	ret

00000e32 <printf>:
     e32:	a0 e0       	ldi	r26, 0x00	; 0
     e34:	b0 e0       	ldi	r27, 0x00	; 0
     e36:	ef e1       	ldi	r30, 0x1F	; 31
     e38:	f7 e0       	ldi	r31, 0x07	; 7
     e3a:	0c 94 f6 09 	jmp	0x13ec	; 0x13ec <__prologue_saves__+0x20>
     e3e:	ae 01       	movw	r20, r28
     e40:	4b 5f       	subi	r20, 0xFB	; 251
     e42:	5f 4f       	sbci	r21, 0xFF	; 255
     e44:	fa 01       	movw	r30, r20
     e46:	61 91       	ld	r22, Z+
     e48:	71 91       	ld	r23, Z+
     e4a:	af 01       	movw	r20, r30
     e4c:	80 91 49 01 	lds	r24, 0x0149	; 0x800149 <__iob+0x2>
     e50:	90 91 4a 01 	lds	r25, 0x014A	; 0x80014a <__iob+0x3>
     e54:	0e 94 55 07 	call	0xeaa	; 0xeaa <vfprintf>
     e58:	e2 e0       	ldi	r30, 0x02	; 2
     e5a:	0c 94 12 0a 	jmp	0x1424	; 0x1424 <__epilogue_restores__+0x20>

00000e5e <printf_P>:
     e5e:	a0 e0       	ldi	r26, 0x00	; 0
     e60:	b0 e0       	ldi	r27, 0x00	; 0
     e62:	e5 e3       	ldi	r30, 0x35	; 53
     e64:	f7 e0       	ldi	r31, 0x07	; 7
     e66:	0c 94 f4 09 	jmp	0x13e8	; 0x13e8 <__prologue_saves__+0x1c>
     e6a:	ae 01       	movw	r20, r28
     e6c:	49 5f       	subi	r20, 0xF9	; 249
     e6e:	5f 4f       	sbci	r21, 0xFF	; 255
     e70:	da 01       	movw	r26, r20
     e72:	6d 91       	ld	r22, X+
     e74:	7d 91       	ld	r23, X+
     e76:	ad 01       	movw	r20, r26
     e78:	07 e4       	ldi	r16, 0x47	; 71
     e7a:	11 e0       	ldi	r17, 0x01	; 1
     e7c:	f8 01       	movw	r30, r16
     e7e:	82 81       	ldd	r24, Z+2	; 0x02
     e80:	93 81       	ldd	r25, Z+3	; 0x03
     e82:	dc 01       	movw	r26, r24
     e84:	13 96       	adiw	r26, 0x03	; 3
     e86:	2c 91       	ld	r18, X
     e88:	13 97       	sbiw	r26, 0x03	; 3
     e8a:	28 60       	ori	r18, 0x08	; 8
     e8c:	13 96       	adiw	r26, 0x03	; 3
     e8e:	2c 93       	st	X, r18
     e90:	0e 94 55 07 	call	0xeaa	; 0xeaa <vfprintf>
     e94:	d8 01       	movw	r26, r16
     e96:	12 96       	adiw	r26, 0x02	; 2
     e98:	ed 91       	ld	r30, X+
     e9a:	fc 91       	ld	r31, X
     e9c:	13 97       	sbiw	r26, 0x03	; 3
     e9e:	23 81       	ldd	r18, Z+3	; 0x03
     ea0:	27 7f       	andi	r18, 0xF7	; 247
     ea2:	23 83       	std	Z+3, r18	; 0x03
     ea4:	e4 e0       	ldi	r30, 0x04	; 4
     ea6:	0c 94 10 0a 	jmp	0x1420	; 0x1420 <__epilogue_restores__+0x1c>

00000eaa <vfprintf>:
     eaa:	ab e0       	ldi	r26, 0x0B	; 11
     eac:	b0 e0       	ldi	r27, 0x00	; 0
     eae:	eb e5       	ldi	r30, 0x5B	; 91
     eb0:	f7 e0       	ldi	r31, 0x07	; 7
     eb2:	0c 94 e6 09 	jmp	0x13cc	; 0x13cc <__prologue_saves__>
     eb6:	6c 01       	movw	r12, r24
     eb8:	7b 01       	movw	r14, r22
     eba:	8a 01       	movw	r16, r20
     ebc:	fc 01       	movw	r30, r24
     ebe:	17 82       	std	Z+7, r1	; 0x07
     ec0:	16 82       	std	Z+6, r1	; 0x06
     ec2:	83 81       	ldd	r24, Z+3	; 0x03
     ec4:	81 ff       	sbrs	r24, 1
     ec6:	cc c1       	rjmp	.+920    	; 0x1260 <vfprintf+0x3b6>
     ec8:	ce 01       	movw	r24, r28
     eca:	01 96       	adiw	r24, 0x01	; 1
     ecc:	3c 01       	movw	r6, r24
     ece:	f6 01       	movw	r30, r12
     ed0:	93 81       	ldd	r25, Z+3	; 0x03
     ed2:	f7 01       	movw	r30, r14
     ed4:	93 fd       	sbrc	r25, 3
     ed6:	85 91       	lpm	r24, Z+
     ed8:	93 ff       	sbrs	r25, 3
     eda:	81 91       	ld	r24, Z+
     edc:	7f 01       	movw	r14, r30
     ede:	88 23       	and	r24, r24
     ee0:	09 f4       	brne	.+2      	; 0xee4 <vfprintf+0x3a>
     ee2:	ba c1       	rjmp	.+884    	; 0x1258 <vfprintf+0x3ae>
     ee4:	85 32       	cpi	r24, 0x25	; 37
     ee6:	39 f4       	brne	.+14     	; 0xef6 <vfprintf+0x4c>
     ee8:	93 fd       	sbrc	r25, 3
     eea:	85 91       	lpm	r24, Z+
     eec:	93 ff       	sbrs	r25, 3
     eee:	81 91       	ld	r24, Z+
     ef0:	7f 01       	movw	r14, r30
     ef2:	85 32       	cpi	r24, 0x25	; 37
     ef4:	29 f4       	brne	.+10     	; 0xf00 <vfprintf+0x56>
     ef6:	b6 01       	movw	r22, r12
     ef8:	90 e0       	ldi	r25, 0x00	; 0
     efa:	0e 94 4c 09 	call	0x1298	; 0x1298 <fputc>
     efe:	e7 cf       	rjmp	.-50     	; 0xece <vfprintf+0x24>
     f00:	91 2c       	mov	r9, r1
     f02:	21 2c       	mov	r2, r1
     f04:	31 2c       	mov	r3, r1
     f06:	ff e1       	ldi	r31, 0x1F	; 31
     f08:	f3 15       	cp	r31, r3
     f0a:	d8 f0       	brcs	.+54     	; 0xf42 <vfprintf+0x98>
     f0c:	8b 32       	cpi	r24, 0x2B	; 43
     f0e:	79 f0       	breq	.+30     	; 0xf2e <vfprintf+0x84>
     f10:	38 f4       	brcc	.+14     	; 0xf20 <vfprintf+0x76>
     f12:	80 32       	cpi	r24, 0x20	; 32
     f14:	79 f0       	breq	.+30     	; 0xf34 <vfprintf+0x8a>
     f16:	83 32       	cpi	r24, 0x23	; 35
     f18:	a1 f4       	brne	.+40     	; 0xf42 <vfprintf+0x98>
     f1a:	23 2d       	mov	r18, r3
     f1c:	20 61       	ori	r18, 0x10	; 16
     f1e:	1d c0       	rjmp	.+58     	; 0xf5a <vfprintf+0xb0>
     f20:	8d 32       	cpi	r24, 0x2D	; 45
     f22:	61 f0       	breq	.+24     	; 0xf3c <vfprintf+0x92>
     f24:	80 33       	cpi	r24, 0x30	; 48
     f26:	69 f4       	brne	.+26     	; 0xf42 <vfprintf+0x98>
     f28:	23 2d       	mov	r18, r3
     f2a:	21 60       	ori	r18, 0x01	; 1
     f2c:	16 c0       	rjmp	.+44     	; 0xf5a <vfprintf+0xb0>
     f2e:	83 2d       	mov	r24, r3
     f30:	82 60       	ori	r24, 0x02	; 2
     f32:	38 2e       	mov	r3, r24
     f34:	e3 2d       	mov	r30, r3
     f36:	e4 60       	ori	r30, 0x04	; 4
     f38:	3e 2e       	mov	r3, r30
     f3a:	2a c0       	rjmp	.+84     	; 0xf90 <vfprintf+0xe6>
     f3c:	f3 2d       	mov	r31, r3
     f3e:	f8 60       	ori	r31, 0x08	; 8
     f40:	1d c0       	rjmp	.+58     	; 0xf7c <vfprintf+0xd2>
     f42:	37 fc       	sbrc	r3, 7
     f44:	2d c0       	rjmp	.+90     	; 0xfa0 <vfprintf+0xf6>
     f46:	20 ed       	ldi	r18, 0xD0	; 208
     f48:	28 0f       	add	r18, r24
     f4a:	2a 30       	cpi	r18, 0x0A	; 10
     f4c:	40 f0       	brcs	.+16     	; 0xf5e <vfprintf+0xb4>
     f4e:	8e 32       	cpi	r24, 0x2E	; 46
     f50:	b9 f4       	brne	.+46     	; 0xf80 <vfprintf+0xd6>
     f52:	36 fc       	sbrc	r3, 6
     f54:	81 c1       	rjmp	.+770    	; 0x1258 <vfprintf+0x3ae>
     f56:	23 2d       	mov	r18, r3
     f58:	20 64       	ori	r18, 0x40	; 64
     f5a:	32 2e       	mov	r3, r18
     f5c:	19 c0       	rjmp	.+50     	; 0xf90 <vfprintf+0xe6>
     f5e:	36 fe       	sbrs	r3, 6
     f60:	06 c0       	rjmp	.+12     	; 0xf6e <vfprintf+0xc4>
     f62:	8a e0       	ldi	r24, 0x0A	; 10
     f64:	98 9e       	mul	r9, r24
     f66:	20 0d       	add	r18, r0
     f68:	11 24       	eor	r1, r1
     f6a:	92 2e       	mov	r9, r18
     f6c:	11 c0       	rjmp	.+34     	; 0xf90 <vfprintf+0xe6>
     f6e:	ea e0       	ldi	r30, 0x0A	; 10
     f70:	2e 9e       	mul	r2, r30
     f72:	20 0d       	add	r18, r0
     f74:	11 24       	eor	r1, r1
     f76:	22 2e       	mov	r2, r18
     f78:	f3 2d       	mov	r31, r3
     f7a:	f0 62       	ori	r31, 0x20	; 32
     f7c:	3f 2e       	mov	r3, r31
     f7e:	08 c0       	rjmp	.+16     	; 0xf90 <vfprintf+0xe6>
     f80:	8c 36       	cpi	r24, 0x6C	; 108
     f82:	21 f4       	brne	.+8      	; 0xf8c <vfprintf+0xe2>
     f84:	83 2d       	mov	r24, r3
     f86:	80 68       	ori	r24, 0x80	; 128
     f88:	38 2e       	mov	r3, r24
     f8a:	02 c0       	rjmp	.+4      	; 0xf90 <vfprintf+0xe6>
     f8c:	88 36       	cpi	r24, 0x68	; 104
     f8e:	41 f4       	brne	.+16     	; 0xfa0 <vfprintf+0xf6>
     f90:	f7 01       	movw	r30, r14
     f92:	93 fd       	sbrc	r25, 3
     f94:	85 91       	lpm	r24, Z+
     f96:	93 ff       	sbrs	r25, 3
     f98:	81 91       	ld	r24, Z+
     f9a:	7f 01       	movw	r14, r30
     f9c:	81 11       	cpse	r24, r1
     f9e:	b3 cf       	rjmp	.-154    	; 0xf06 <vfprintf+0x5c>
     fa0:	98 2f       	mov	r25, r24
     fa2:	9f 7d       	andi	r25, 0xDF	; 223
     fa4:	95 54       	subi	r25, 0x45	; 69
     fa6:	93 30       	cpi	r25, 0x03	; 3
     fa8:	28 f4       	brcc	.+10     	; 0xfb4 <vfprintf+0x10a>
     faa:	0c 5f       	subi	r16, 0xFC	; 252
     fac:	1f 4f       	sbci	r17, 0xFF	; 255
     fae:	9f e3       	ldi	r25, 0x3F	; 63
     fb0:	99 83       	std	Y+1, r25	; 0x01
     fb2:	0d c0       	rjmp	.+26     	; 0xfce <vfprintf+0x124>
     fb4:	83 36       	cpi	r24, 0x63	; 99
     fb6:	31 f0       	breq	.+12     	; 0xfc4 <vfprintf+0x11a>
     fb8:	83 37       	cpi	r24, 0x73	; 115
     fba:	71 f0       	breq	.+28     	; 0xfd8 <vfprintf+0x12e>
     fbc:	83 35       	cpi	r24, 0x53	; 83
     fbe:	09 f0       	breq	.+2      	; 0xfc2 <vfprintf+0x118>
     fc0:	59 c0       	rjmp	.+178    	; 0x1074 <vfprintf+0x1ca>
     fc2:	21 c0       	rjmp	.+66     	; 0x1006 <vfprintf+0x15c>
     fc4:	f8 01       	movw	r30, r16
     fc6:	80 81       	ld	r24, Z
     fc8:	89 83       	std	Y+1, r24	; 0x01
     fca:	0e 5f       	subi	r16, 0xFE	; 254
     fcc:	1f 4f       	sbci	r17, 0xFF	; 255
     fce:	88 24       	eor	r8, r8
     fd0:	83 94       	inc	r8
     fd2:	91 2c       	mov	r9, r1
     fd4:	53 01       	movw	r10, r6
     fd6:	13 c0       	rjmp	.+38     	; 0xffe <vfprintf+0x154>
     fd8:	28 01       	movw	r4, r16
     fda:	f2 e0       	ldi	r31, 0x02	; 2
     fdc:	4f 0e       	add	r4, r31
     fde:	51 1c       	adc	r5, r1
     fe0:	f8 01       	movw	r30, r16
     fe2:	a0 80       	ld	r10, Z
     fe4:	b1 80       	ldd	r11, Z+1	; 0x01
     fe6:	36 fe       	sbrs	r3, 6
     fe8:	03 c0       	rjmp	.+6      	; 0xff0 <vfprintf+0x146>
     fea:	69 2d       	mov	r22, r9
     fec:	70 e0       	ldi	r23, 0x00	; 0
     fee:	02 c0       	rjmp	.+4      	; 0xff4 <vfprintf+0x14a>
     ff0:	6f ef       	ldi	r22, 0xFF	; 255
     ff2:	7f ef       	ldi	r23, 0xFF	; 255
     ff4:	c5 01       	movw	r24, r10
     ff6:	0e 94 41 09 	call	0x1282	; 0x1282 <strnlen>
     ffa:	4c 01       	movw	r8, r24
     ffc:	82 01       	movw	r16, r4
     ffe:	f3 2d       	mov	r31, r3
    1000:	ff 77       	andi	r31, 0x7F	; 127
    1002:	3f 2e       	mov	r3, r31
    1004:	16 c0       	rjmp	.+44     	; 0x1032 <vfprintf+0x188>
    1006:	28 01       	movw	r4, r16
    1008:	22 e0       	ldi	r18, 0x02	; 2
    100a:	42 0e       	add	r4, r18
    100c:	51 1c       	adc	r5, r1
    100e:	f8 01       	movw	r30, r16
    1010:	a0 80       	ld	r10, Z
    1012:	b1 80       	ldd	r11, Z+1	; 0x01
    1014:	36 fe       	sbrs	r3, 6
    1016:	03 c0       	rjmp	.+6      	; 0x101e <vfprintf+0x174>
    1018:	69 2d       	mov	r22, r9
    101a:	70 e0       	ldi	r23, 0x00	; 0
    101c:	02 c0       	rjmp	.+4      	; 0x1022 <vfprintf+0x178>
    101e:	6f ef       	ldi	r22, 0xFF	; 255
    1020:	7f ef       	ldi	r23, 0xFF	; 255
    1022:	c5 01       	movw	r24, r10
    1024:	0e 94 36 09 	call	0x126c	; 0x126c <strnlen_P>
    1028:	4c 01       	movw	r8, r24
    102a:	f3 2d       	mov	r31, r3
    102c:	f0 68       	ori	r31, 0x80	; 128
    102e:	3f 2e       	mov	r3, r31
    1030:	82 01       	movw	r16, r4
    1032:	33 fc       	sbrc	r3, 3
    1034:	1b c0       	rjmp	.+54     	; 0x106c <vfprintf+0x1c2>
    1036:	82 2d       	mov	r24, r2
    1038:	90 e0       	ldi	r25, 0x00	; 0
    103a:	88 16       	cp	r8, r24
    103c:	99 06       	cpc	r9, r25
    103e:	b0 f4       	brcc	.+44     	; 0x106c <vfprintf+0x1c2>
    1040:	b6 01       	movw	r22, r12
    1042:	80 e2       	ldi	r24, 0x20	; 32
    1044:	90 e0       	ldi	r25, 0x00	; 0
    1046:	0e 94 4c 09 	call	0x1298	; 0x1298 <fputc>
    104a:	2a 94       	dec	r2
    104c:	f4 cf       	rjmp	.-24     	; 0x1036 <vfprintf+0x18c>
    104e:	f5 01       	movw	r30, r10
    1050:	37 fc       	sbrc	r3, 7
    1052:	85 91       	lpm	r24, Z+
    1054:	37 fe       	sbrs	r3, 7
    1056:	81 91       	ld	r24, Z+
    1058:	5f 01       	movw	r10, r30
    105a:	b6 01       	movw	r22, r12
    105c:	90 e0       	ldi	r25, 0x00	; 0
    105e:	0e 94 4c 09 	call	0x1298	; 0x1298 <fputc>
    1062:	21 10       	cpse	r2, r1
    1064:	2a 94       	dec	r2
    1066:	21 e0       	ldi	r18, 0x01	; 1
    1068:	82 1a       	sub	r8, r18
    106a:	91 08       	sbc	r9, r1
    106c:	81 14       	cp	r8, r1
    106e:	91 04       	cpc	r9, r1
    1070:	71 f7       	brne	.-36     	; 0x104e <vfprintf+0x1a4>
    1072:	e8 c0       	rjmp	.+464    	; 0x1244 <vfprintf+0x39a>
    1074:	84 36       	cpi	r24, 0x64	; 100
    1076:	11 f0       	breq	.+4      	; 0x107c <vfprintf+0x1d2>
    1078:	89 36       	cpi	r24, 0x69	; 105
    107a:	41 f5       	brne	.+80     	; 0x10cc <vfprintf+0x222>
    107c:	f8 01       	movw	r30, r16
    107e:	37 fe       	sbrs	r3, 7
    1080:	07 c0       	rjmp	.+14     	; 0x1090 <vfprintf+0x1e6>
    1082:	60 81       	ld	r22, Z
    1084:	71 81       	ldd	r23, Z+1	; 0x01
    1086:	82 81       	ldd	r24, Z+2	; 0x02
    1088:	93 81       	ldd	r25, Z+3	; 0x03
    108a:	0c 5f       	subi	r16, 0xFC	; 252
    108c:	1f 4f       	sbci	r17, 0xFF	; 255
    108e:	08 c0       	rjmp	.+16     	; 0x10a0 <vfprintf+0x1f6>
    1090:	60 81       	ld	r22, Z
    1092:	71 81       	ldd	r23, Z+1	; 0x01
    1094:	07 2e       	mov	r0, r23
    1096:	00 0c       	add	r0, r0
    1098:	88 0b       	sbc	r24, r24
    109a:	99 0b       	sbc	r25, r25
    109c:	0e 5f       	subi	r16, 0xFE	; 254
    109e:	1f 4f       	sbci	r17, 0xFF	; 255
    10a0:	f3 2d       	mov	r31, r3
    10a2:	ff 76       	andi	r31, 0x6F	; 111
    10a4:	3f 2e       	mov	r3, r31
    10a6:	97 ff       	sbrs	r25, 7
    10a8:	09 c0       	rjmp	.+18     	; 0x10bc <vfprintf+0x212>
    10aa:	90 95       	com	r25
    10ac:	80 95       	com	r24
    10ae:	70 95       	com	r23
    10b0:	61 95       	neg	r22
    10b2:	7f 4f       	sbci	r23, 0xFF	; 255
    10b4:	8f 4f       	sbci	r24, 0xFF	; 255
    10b6:	9f 4f       	sbci	r25, 0xFF	; 255
    10b8:	f0 68       	ori	r31, 0x80	; 128
    10ba:	3f 2e       	mov	r3, r31
    10bc:	2a e0       	ldi	r18, 0x0A	; 10
    10be:	30 e0       	ldi	r19, 0x00	; 0
    10c0:	a3 01       	movw	r20, r6
    10c2:	0e 94 88 09 	call	0x1310	; 0x1310 <__ultoa_invert>
    10c6:	88 2e       	mov	r8, r24
    10c8:	86 18       	sub	r8, r6
    10ca:	45 c0       	rjmp	.+138    	; 0x1156 <vfprintf+0x2ac>
    10cc:	85 37       	cpi	r24, 0x75	; 117
    10ce:	31 f4       	brne	.+12     	; 0x10dc <vfprintf+0x232>
    10d0:	23 2d       	mov	r18, r3
    10d2:	2f 7e       	andi	r18, 0xEF	; 239
    10d4:	b2 2e       	mov	r11, r18
    10d6:	2a e0       	ldi	r18, 0x0A	; 10
    10d8:	30 e0       	ldi	r19, 0x00	; 0
    10da:	25 c0       	rjmp	.+74     	; 0x1126 <vfprintf+0x27c>
    10dc:	93 2d       	mov	r25, r3
    10de:	99 7f       	andi	r25, 0xF9	; 249
    10e0:	b9 2e       	mov	r11, r25
    10e2:	8f 36       	cpi	r24, 0x6F	; 111
    10e4:	c1 f0       	breq	.+48     	; 0x1116 <vfprintf+0x26c>
    10e6:	18 f4       	brcc	.+6      	; 0x10ee <vfprintf+0x244>
    10e8:	88 35       	cpi	r24, 0x58	; 88
    10ea:	79 f0       	breq	.+30     	; 0x110a <vfprintf+0x260>
    10ec:	b5 c0       	rjmp	.+362    	; 0x1258 <vfprintf+0x3ae>
    10ee:	80 37       	cpi	r24, 0x70	; 112
    10f0:	19 f0       	breq	.+6      	; 0x10f8 <vfprintf+0x24e>
    10f2:	88 37       	cpi	r24, 0x78	; 120
    10f4:	21 f0       	breq	.+8      	; 0x10fe <vfprintf+0x254>
    10f6:	b0 c0       	rjmp	.+352    	; 0x1258 <vfprintf+0x3ae>
    10f8:	e9 2f       	mov	r30, r25
    10fa:	e0 61       	ori	r30, 0x10	; 16
    10fc:	be 2e       	mov	r11, r30
    10fe:	b4 fe       	sbrs	r11, 4
    1100:	0d c0       	rjmp	.+26     	; 0x111c <vfprintf+0x272>
    1102:	fb 2d       	mov	r31, r11
    1104:	f4 60       	ori	r31, 0x04	; 4
    1106:	bf 2e       	mov	r11, r31
    1108:	09 c0       	rjmp	.+18     	; 0x111c <vfprintf+0x272>
    110a:	34 fe       	sbrs	r3, 4
    110c:	0a c0       	rjmp	.+20     	; 0x1122 <vfprintf+0x278>
    110e:	29 2f       	mov	r18, r25
    1110:	26 60       	ori	r18, 0x06	; 6
    1112:	b2 2e       	mov	r11, r18
    1114:	06 c0       	rjmp	.+12     	; 0x1122 <vfprintf+0x278>
    1116:	28 e0       	ldi	r18, 0x08	; 8
    1118:	30 e0       	ldi	r19, 0x00	; 0
    111a:	05 c0       	rjmp	.+10     	; 0x1126 <vfprintf+0x27c>
    111c:	20 e1       	ldi	r18, 0x10	; 16
    111e:	30 e0       	ldi	r19, 0x00	; 0
    1120:	02 c0       	rjmp	.+4      	; 0x1126 <vfprintf+0x27c>
    1122:	20 e1       	ldi	r18, 0x10	; 16
    1124:	32 e0       	ldi	r19, 0x02	; 2
    1126:	f8 01       	movw	r30, r16
    1128:	b7 fe       	sbrs	r11, 7
    112a:	07 c0       	rjmp	.+14     	; 0x113a <vfprintf+0x290>
    112c:	60 81       	ld	r22, Z
    112e:	71 81       	ldd	r23, Z+1	; 0x01
    1130:	82 81       	ldd	r24, Z+2	; 0x02
    1132:	93 81       	ldd	r25, Z+3	; 0x03
    1134:	0c 5f       	subi	r16, 0xFC	; 252
    1136:	1f 4f       	sbci	r17, 0xFF	; 255
    1138:	06 c0       	rjmp	.+12     	; 0x1146 <vfprintf+0x29c>
    113a:	60 81       	ld	r22, Z
    113c:	71 81       	ldd	r23, Z+1	; 0x01
    113e:	80 e0       	ldi	r24, 0x00	; 0
    1140:	90 e0       	ldi	r25, 0x00	; 0
    1142:	0e 5f       	subi	r16, 0xFE	; 254
    1144:	1f 4f       	sbci	r17, 0xFF	; 255
    1146:	a3 01       	movw	r20, r6
    1148:	0e 94 88 09 	call	0x1310	; 0x1310 <__ultoa_invert>
    114c:	88 2e       	mov	r8, r24
    114e:	86 18       	sub	r8, r6
    1150:	fb 2d       	mov	r31, r11
    1152:	ff 77       	andi	r31, 0x7F	; 127
    1154:	3f 2e       	mov	r3, r31
    1156:	36 fe       	sbrs	r3, 6
    1158:	0d c0       	rjmp	.+26     	; 0x1174 <vfprintf+0x2ca>
    115a:	23 2d       	mov	r18, r3
    115c:	2e 7f       	andi	r18, 0xFE	; 254
    115e:	a2 2e       	mov	r10, r18
    1160:	89 14       	cp	r8, r9
    1162:	58 f4       	brcc	.+22     	; 0x117a <vfprintf+0x2d0>
    1164:	34 fe       	sbrs	r3, 4
    1166:	0b c0       	rjmp	.+22     	; 0x117e <vfprintf+0x2d4>
    1168:	32 fc       	sbrc	r3, 2
    116a:	09 c0       	rjmp	.+18     	; 0x117e <vfprintf+0x2d4>
    116c:	83 2d       	mov	r24, r3
    116e:	8e 7e       	andi	r24, 0xEE	; 238
    1170:	a8 2e       	mov	r10, r24
    1172:	05 c0       	rjmp	.+10     	; 0x117e <vfprintf+0x2d4>
    1174:	b8 2c       	mov	r11, r8
    1176:	a3 2c       	mov	r10, r3
    1178:	03 c0       	rjmp	.+6      	; 0x1180 <vfprintf+0x2d6>
    117a:	b8 2c       	mov	r11, r8
    117c:	01 c0       	rjmp	.+2      	; 0x1180 <vfprintf+0x2d6>
    117e:	b9 2c       	mov	r11, r9
    1180:	a4 fe       	sbrs	r10, 4
    1182:	0f c0       	rjmp	.+30     	; 0x11a2 <vfprintf+0x2f8>
    1184:	fe 01       	movw	r30, r28
    1186:	e8 0d       	add	r30, r8
    1188:	f1 1d       	adc	r31, r1
    118a:	80 81       	ld	r24, Z
    118c:	80 33       	cpi	r24, 0x30	; 48
    118e:	21 f4       	brne	.+8      	; 0x1198 <vfprintf+0x2ee>
    1190:	9a 2d       	mov	r25, r10
    1192:	99 7e       	andi	r25, 0xE9	; 233
    1194:	a9 2e       	mov	r10, r25
    1196:	09 c0       	rjmp	.+18     	; 0x11aa <vfprintf+0x300>
    1198:	a2 fe       	sbrs	r10, 2
    119a:	06 c0       	rjmp	.+12     	; 0x11a8 <vfprintf+0x2fe>
    119c:	b3 94       	inc	r11
    119e:	b3 94       	inc	r11
    11a0:	04 c0       	rjmp	.+8      	; 0x11aa <vfprintf+0x300>
    11a2:	8a 2d       	mov	r24, r10
    11a4:	86 78       	andi	r24, 0x86	; 134
    11a6:	09 f0       	breq	.+2      	; 0x11aa <vfprintf+0x300>
    11a8:	b3 94       	inc	r11
    11aa:	a3 fc       	sbrc	r10, 3
    11ac:	11 c0       	rjmp	.+34     	; 0x11d0 <vfprintf+0x326>
    11ae:	a0 fe       	sbrs	r10, 0
    11b0:	06 c0       	rjmp	.+12     	; 0x11be <vfprintf+0x314>
    11b2:	b2 14       	cp	r11, r2
    11b4:	88 f4       	brcc	.+34     	; 0x11d8 <vfprintf+0x32e>
    11b6:	28 0c       	add	r2, r8
    11b8:	92 2c       	mov	r9, r2
    11ba:	9b 18       	sub	r9, r11
    11bc:	0e c0       	rjmp	.+28     	; 0x11da <vfprintf+0x330>
    11be:	b2 14       	cp	r11, r2
    11c0:	60 f4       	brcc	.+24     	; 0x11da <vfprintf+0x330>
    11c2:	b6 01       	movw	r22, r12
    11c4:	80 e2       	ldi	r24, 0x20	; 32
    11c6:	90 e0       	ldi	r25, 0x00	; 0
    11c8:	0e 94 4c 09 	call	0x1298	; 0x1298 <fputc>
    11cc:	b3 94       	inc	r11
    11ce:	f7 cf       	rjmp	.-18     	; 0x11be <vfprintf+0x314>
    11d0:	b2 14       	cp	r11, r2
    11d2:	18 f4       	brcc	.+6      	; 0x11da <vfprintf+0x330>
    11d4:	2b 18       	sub	r2, r11
    11d6:	02 c0       	rjmp	.+4      	; 0x11dc <vfprintf+0x332>
    11d8:	98 2c       	mov	r9, r8
    11da:	21 2c       	mov	r2, r1
    11dc:	a4 fe       	sbrs	r10, 4
    11de:	10 c0       	rjmp	.+32     	; 0x1200 <vfprintf+0x356>
    11e0:	b6 01       	movw	r22, r12
    11e2:	80 e3       	ldi	r24, 0x30	; 48
    11e4:	90 e0       	ldi	r25, 0x00	; 0
    11e6:	0e 94 4c 09 	call	0x1298	; 0x1298 <fputc>
    11ea:	a2 fe       	sbrs	r10, 2
    11ec:	17 c0       	rjmp	.+46     	; 0x121c <vfprintf+0x372>
    11ee:	a1 fc       	sbrc	r10, 1
    11f0:	03 c0       	rjmp	.+6      	; 0x11f8 <vfprintf+0x34e>
    11f2:	88 e7       	ldi	r24, 0x78	; 120
    11f4:	90 e0       	ldi	r25, 0x00	; 0
    11f6:	02 c0       	rjmp	.+4      	; 0x11fc <vfprintf+0x352>
    11f8:	88 e5       	ldi	r24, 0x58	; 88
    11fa:	90 e0       	ldi	r25, 0x00	; 0
    11fc:	b6 01       	movw	r22, r12
    11fe:	0c c0       	rjmp	.+24     	; 0x1218 <vfprintf+0x36e>
    1200:	8a 2d       	mov	r24, r10
    1202:	86 78       	andi	r24, 0x86	; 134
    1204:	59 f0       	breq	.+22     	; 0x121c <vfprintf+0x372>
    1206:	a1 fe       	sbrs	r10, 1
    1208:	02 c0       	rjmp	.+4      	; 0x120e <vfprintf+0x364>
    120a:	8b e2       	ldi	r24, 0x2B	; 43
    120c:	01 c0       	rjmp	.+2      	; 0x1210 <vfprintf+0x366>
    120e:	80 e2       	ldi	r24, 0x20	; 32
    1210:	a7 fc       	sbrc	r10, 7
    1212:	8d e2       	ldi	r24, 0x2D	; 45
    1214:	b6 01       	movw	r22, r12
    1216:	90 e0       	ldi	r25, 0x00	; 0
    1218:	0e 94 4c 09 	call	0x1298	; 0x1298 <fputc>
    121c:	89 14       	cp	r8, r9
    121e:	38 f4       	brcc	.+14     	; 0x122e <vfprintf+0x384>
    1220:	b6 01       	movw	r22, r12
    1222:	80 e3       	ldi	r24, 0x30	; 48
    1224:	90 e0       	ldi	r25, 0x00	; 0
    1226:	0e 94 4c 09 	call	0x1298	; 0x1298 <fputc>
    122a:	9a 94       	dec	r9
    122c:	f7 cf       	rjmp	.-18     	; 0x121c <vfprintf+0x372>
    122e:	8a 94       	dec	r8
    1230:	f3 01       	movw	r30, r6
    1232:	e8 0d       	add	r30, r8
    1234:	f1 1d       	adc	r31, r1
    1236:	80 81       	ld	r24, Z
    1238:	b6 01       	movw	r22, r12
    123a:	90 e0       	ldi	r25, 0x00	; 0
    123c:	0e 94 4c 09 	call	0x1298	; 0x1298 <fputc>
    1240:	81 10       	cpse	r8, r1
    1242:	f5 cf       	rjmp	.-22     	; 0x122e <vfprintf+0x384>
    1244:	22 20       	and	r2, r2
    1246:	09 f4       	brne	.+2      	; 0x124a <vfprintf+0x3a0>
    1248:	42 ce       	rjmp	.-892    	; 0xece <vfprintf+0x24>
    124a:	b6 01       	movw	r22, r12
    124c:	80 e2       	ldi	r24, 0x20	; 32
    124e:	90 e0       	ldi	r25, 0x00	; 0
    1250:	0e 94 4c 09 	call	0x1298	; 0x1298 <fputc>
    1254:	2a 94       	dec	r2
    1256:	f6 cf       	rjmp	.-20     	; 0x1244 <vfprintf+0x39a>
    1258:	f6 01       	movw	r30, r12
    125a:	86 81       	ldd	r24, Z+6	; 0x06
    125c:	97 81       	ldd	r25, Z+7	; 0x07
    125e:	02 c0       	rjmp	.+4      	; 0x1264 <vfprintf+0x3ba>
    1260:	8f ef       	ldi	r24, 0xFF	; 255
    1262:	9f ef       	ldi	r25, 0xFF	; 255
    1264:	2b 96       	adiw	r28, 0x0b	; 11
    1266:	e2 e1       	ldi	r30, 0x12	; 18
    1268:	0c 94 02 0a 	jmp	0x1404	; 0x1404 <__epilogue_restores__>

0000126c <strnlen_P>:
    126c:	fc 01       	movw	r30, r24
    126e:	05 90       	lpm	r0, Z+
    1270:	61 50       	subi	r22, 0x01	; 1
    1272:	70 40       	sbci	r23, 0x00	; 0
    1274:	01 10       	cpse	r0, r1
    1276:	d8 f7       	brcc	.-10     	; 0x126e <strnlen_P+0x2>
    1278:	80 95       	com	r24
    127a:	90 95       	com	r25
    127c:	8e 0f       	add	r24, r30
    127e:	9f 1f       	adc	r25, r31
    1280:	08 95       	ret

00001282 <strnlen>:
    1282:	fc 01       	movw	r30, r24
    1284:	61 50       	subi	r22, 0x01	; 1
    1286:	70 40       	sbci	r23, 0x00	; 0
    1288:	01 90       	ld	r0, Z+
    128a:	01 10       	cpse	r0, r1
    128c:	d8 f7       	brcc	.-10     	; 0x1284 <strnlen+0x2>
    128e:	80 95       	com	r24
    1290:	90 95       	com	r25
    1292:	8e 0f       	add	r24, r30
    1294:	9f 1f       	adc	r25, r31
    1296:	08 95       	ret

00001298 <fputc>:
    1298:	0f 93       	push	r16
    129a:	1f 93       	push	r17
    129c:	cf 93       	push	r28
    129e:	df 93       	push	r29
    12a0:	fb 01       	movw	r30, r22
    12a2:	23 81       	ldd	r18, Z+3	; 0x03
    12a4:	21 fd       	sbrc	r18, 1
    12a6:	03 c0       	rjmp	.+6      	; 0x12ae <fputc+0x16>
    12a8:	8f ef       	ldi	r24, 0xFF	; 255
    12aa:	9f ef       	ldi	r25, 0xFF	; 255
    12ac:	2c c0       	rjmp	.+88     	; 0x1306 <fputc+0x6e>
    12ae:	22 ff       	sbrs	r18, 2
    12b0:	16 c0       	rjmp	.+44     	; 0x12de <fputc+0x46>
    12b2:	46 81       	ldd	r20, Z+6	; 0x06
    12b4:	57 81       	ldd	r21, Z+7	; 0x07
    12b6:	24 81       	ldd	r18, Z+4	; 0x04
    12b8:	35 81       	ldd	r19, Z+5	; 0x05
    12ba:	42 17       	cp	r20, r18
    12bc:	53 07       	cpc	r21, r19
    12be:	44 f4       	brge	.+16     	; 0x12d0 <fputc+0x38>
    12c0:	a0 81       	ld	r26, Z
    12c2:	b1 81       	ldd	r27, Z+1	; 0x01
    12c4:	9d 01       	movw	r18, r26
    12c6:	2f 5f       	subi	r18, 0xFF	; 255
    12c8:	3f 4f       	sbci	r19, 0xFF	; 255
    12ca:	31 83       	std	Z+1, r19	; 0x01
    12cc:	20 83       	st	Z, r18
    12ce:	8c 93       	st	X, r24
    12d0:	26 81       	ldd	r18, Z+6	; 0x06
    12d2:	37 81       	ldd	r19, Z+7	; 0x07
    12d4:	2f 5f       	subi	r18, 0xFF	; 255
    12d6:	3f 4f       	sbci	r19, 0xFF	; 255
    12d8:	37 83       	std	Z+7, r19	; 0x07
    12da:	26 83       	std	Z+6, r18	; 0x06
    12dc:	14 c0       	rjmp	.+40     	; 0x1306 <fputc+0x6e>
    12de:	8b 01       	movw	r16, r22
    12e0:	ec 01       	movw	r28, r24
    12e2:	fb 01       	movw	r30, r22
    12e4:	00 84       	ldd	r0, Z+8	; 0x08
    12e6:	f1 85       	ldd	r31, Z+9	; 0x09
    12e8:	e0 2d       	mov	r30, r0
    12ea:	09 95       	icall
    12ec:	89 2b       	or	r24, r25
    12ee:	e1 f6       	brne	.-72     	; 0x12a8 <fputc+0x10>
    12f0:	d8 01       	movw	r26, r16
    12f2:	16 96       	adiw	r26, 0x06	; 6
    12f4:	8d 91       	ld	r24, X+
    12f6:	9c 91       	ld	r25, X
    12f8:	17 97       	sbiw	r26, 0x07	; 7
    12fa:	01 96       	adiw	r24, 0x01	; 1
    12fc:	17 96       	adiw	r26, 0x07	; 7
    12fe:	9c 93       	st	X, r25
    1300:	8e 93       	st	-X, r24
    1302:	16 97       	sbiw	r26, 0x06	; 6
    1304:	ce 01       	movw	r24, r28
    1306:	df 91       	pop	r29
    1308:	cf 91       	pop	r28
    130a:	1f 91       	pop	r17
    130c:	0f 91       	pop	r16
    130e:	08 95       	ret

00001310 <__ultoa_invert>:
    1310:	fa 01       	movw	r30, r20
    1312:	aa 27       	eor	r26, r26
    1314:	28 30       	cpi	r18, 0x08	; 8
    1316:	51 f1       	breq	.+84     	; 0x136c <__ultoa_invert+0x5c>
    1318:	20 31       	cpi	r18, 0x10	; 16
    131a:	81 f1       	breq	.+96     	; 0x137c <__ultoa_invert+0x6c>
    131c:	e8 94       	clt
    131e:	6f 93       	push	r22
    1320:	6e 7f       	andi	r22, 0xFE	; 254
    1322:	6e 5f       	subi	r22, 0xFE	; 254
    1324:	7f 4f       	sbci	r23, 0xFF	; 255
    1326:	8f 4f       	sbci	r24, 0xFF	; 255
    1328:	9f 4f       	sbci	r25, 0xFF	; 255
    132a:	af 4f       	sbci	r26, 0xFF	; 255
    132c:	b1 e0       	ldi	r27, 0x01	; 1
    132e:	3e d0       	rcall	.+124    	; 0x13ac <__ultoa_invert+0x9c>
    1330:	b4 e0       	ldi	r27, 0x04	; 4
    1332:	3c d0       	rcall	.+120    	; 0x13ac <__ultoa_invert+0x9c>
    1334:	67 0f       	add	r22, r23
    1336:	78 1f       	adc	r23, r24
    1338:	89 1f       	adc	r24, r25
    133a:	9a 1f       	adc	r25, r26
    133c:	a1 1d       	adc	r26, r1
    133e:	68 0f       	add	r22, r24
    1340:	79 1f       	adc	r23, r25
    1342:	8a 1f       	adc	r24, r26
    1344:	91 1d       	adc	r25, r1
    1346:	a1 1d       	adc	r26, r1
    1348:	6a 0f       	add	r22, r26
    134a:	71 1d       	adc	r23, r1
    134c:	81 1d       	adc	r24, r1
    134e:	91 1d       	adc	r25, r1
    1350:	a1 1d       	adc	r26, r1
    1352:	20 d0       	rcall	.+64     	; 0x1394 <__ultoa_invert+0x84>
    1354:	09 f4       	brne	.+2      	; 0x1358 <__ultoa_invert+0x48>
    1356:	68 94       	set
    1358:	3f 91       	pop	r19
    135a:	2a e0       	ldi	r18, 0x0A	; 10
    135c:	26 9f       	mul	r18, r22
    135e:	11 24       	eor	r1, r1
    1360:	30 19       	sub	r19, r0
    1362:	30 5d       	subi	r19, 0xD0	; 208
    1364:	31 93       	st	Z+, r19
    1366:	de f6       	brtc	.-74     	; 0x131e <__ultoa_invert+0xe>
    1368:	cf 01       	movw	r24, r30
    136a:	08 95       	ret
    136c:	46 2f       	mov	r20, r22
    136e:	47 70       	andi	r20, 0x07	; 7
    1370:	40 5d       	subi	r20, 0xD0	; 208
    1372:	41 93       	st	Z+, r20
    1374:	b3 e0       	ldi	r27, 0x03	; 3
    1376:	0f d0       	rcall	.+30     	; 0x1396 <__ultoa_invert+0x86>
    1378:	c9 f7       	brne	.-14     	; 0x136c <__ultoa_invert+0x5c>
    137a:	f6 cf       	rjmp	.-20     	; 0x1368 <__ultoa_invert+0x58>
    137c:	46 2f       	mov	r20, r22
    137e:	4f 70       	andi	r20, 0x0F	; 15
    1380:	40 5d       	subi	r20, 0xD0	; 208
    1382:	4a 33       	cpi	r20, 0x3A	; 58
    1384:	18 f0       	brcs	.+6      	; 0x138c <__ultoa_invert+0x7c>
    1386:	49 5d       	subi	r20, 0xD9	; 217
    1388:	31 fd       	sbrc	r19, 1
    138a:	40 52       	subi	r20, 0x20	; 32
    138c:	41 93       	st	Z+, r20
    138e:	02 d0       	rcall	.+4      	; 0x1394 <__ultoa_invert+0x84>
    1390:	a9 f7       	brne	.-22     	; 0x137c <__ultoa_invert+0x6c>
    1392:	ea cf       	rjmp	.-44     	; 0x1368 <__ultoa_invert+0x58>
    1394:	b4 e0       	ldi	r27, 0x04	; 4
    1396:	a6 95       	lsr	r26
    1398:	97 95       	ror	r25
    139a:	87 95       	ror	r24
    139c:	77 95       	ror	r23
    139e:	67 95       	ror	r22
    13a0:	ba 95       	dec	r27
    13a2:	c9 f7       	brne	.-14     	; 0x1396 <__ultoa_invert+0x86>
    13a4:	00 97       	sbiw	r24, 0x00	; 0
    13a6:	61 05       	cpc	r22, r1
    13a8:	71 05       	cpc	r23, r1
    13aa:	08 95       	ret
    13ac:	9b 01       	movw	r18, r22
    13ae:	ac 01       	movw	r20, r24
    13b0:	0a 2e       	mov	r0, r26
    13b2:	06 94       	lsr	r0
    13b4:	57 95       	ror	r21
    13b6:	47 95       	ror	r20
    13b8:	37 95       	ror	r19
    13ba:	27 95       	ror	r18
    13bc:	ba 95       	dec	r27
    13be:	c9 f7       	brne	.-14     	; 0x13b2 <__ultoa_invert+0xa2>
    13c0:	62 0f       	add	r22, r18
    13c2:	73 1f       	adc	r23, r19
    13c4:	84 1f       	adc	r24, r20
    13c6:	95 1f       	adc	r25, r21
    13c8:	a0 1d       	adc	r26, r0
    13ca:	08 95       	ret

000013cc <__prologue_saves__>:
    13cc:	2f 92       	push	r2
    13ce:	3f 92       	push	r3
    13d0:	4f 92       	push	r4
    13d2:	5f 92       	push	r5
    13d4:	6f 92       	push	r6
    13d6:	7f 92       	push	r7
    13d8:	8f 92       	push	r8
    13da:	9f 92       	push	r9
    13dc:	af 92       	push	r10
    13de:	bf 92       	push	r11
    13e0:	cf 92       	push	r12
    13e2:	df 92       	push	r13
    13e4:	ef 92       	push	r14
    13e6:	ff 92       	push	r15
    13e8:	0f 93       	push	r16
    13ea:	1f 93       	push	r17
    13ec:	cf 93       	push	r28
    13ee:	df 93       	push	r29
    13f0:	cd b7       	in	r28, 0x3d	; 61
    13f2:	de b7       	in	r29, 0x3e	; 62
    13f4:	ca 1b       	sub	r28, r26
    13f6:	db 0b       	sbc	r29, r27
    13f8:	0f b6       	in	r0, 0x3f	; 63
    13fa:	f8 94       	cli
    13fc:	de bf       	out	0x3e, r29	; 62
    13fe:	0f be       	out	0x3f, r0	; 63
    1400:	cd bf       	out	0x3d, r28	; 61
    1402:	09 94       	ijmp

00001404 <__epilogue_restores__>:
    1404:	2a 88       	ldd	r2, Y+18	; 0x12
    1406:	39 88       	ldd	r3, Y+17	; 0x11
    1408:	48 88       	ldd	r4, Y+16	; 0x10
    140a:	5f 84       	ldd	r5, Y+15	; 0x0f
    140c:	6e 84       	ldd	r6, Y+14	; 0x0e
    140e:	7d 84       	ldd	r7, Y+13	; 0x0d
    1410:	8c 84       	ldd	r8, Y+12	; 0x0c
    1412:	9b 84       	ldd	r9, Y+11	; 0x0b
    1414:	aa 84       	ldd	r10, Y+10	; 0x0a
    1416:	b9 84       	ldd	r11, Y+9	; 0x09
    1418:	c8 84       	ldd	r12, Y+8	; 0x08
    141a:	df 80       	ldd	r13, Y+7	; 0x07
    141c:	ee 80       	ldd	r14, Y+6	; 0x06
    141e:	fd 80       	ldd	r15, Y+5	; 0x05
    1420:	0c 81       	ldd	r16, Y+4	; 0x04
    1422:	1b 81       	ldd	r17, Y+3	; 0x03
    1424:	aa 81       	ldd	r26, Y+2	; 0x02
    1426:	b9 81       	ldd	r27, Y+1	; 0x01
    1428:	ce 0f       	add	r28, r30
    142a:	d1 1d       	adc	r29, r1
    142c:	0f b6       	in	r0, 0x3f	; 63
    142e:	f8 94       	cli
    1430:	de bf       	out	0x3e, r29	; 62
    1432:	0f be       	out	0x3f, r0	; 63
    1434:	cd bf       	out	0x3d, r28	; 61
    1436:	ed 01       	movw	r28, r26
    1438:	08 95       	ret

0000143a <_exit>:
    143a:	f8 94       	cli

0000143c <__stop_program>:
    143c:	ff cf       	rjmp	.-2      	; 0x143c <__stop_program>
